

Microchip MPLAB XC8 Assembler V2.45 build 20230818022343 
                                                                                               Sat Feb 10 00:24:21 2024

Microchip MPLAB XC8 C Compiler v2.45 (Free license) build 20230818022343 Og1 
     1                           	processor	18F4620
     2                           	fnconf	rparam,??,?,0
     3                           	pagewidth 120
     4                           	opt	flic
     5                           	psect	idataCOMRAM,global,class=CODE,delta=1,noexec
     6                           	psect	idataBANK0,global,class=CODE,delta=1,noexec
     7                           	psect	idataBANK1,global,class=CODE,delta=1,noexec
     8                           	psect	smallconst,global,reloc=2,class=SMALLCONST,delta=1,noexec
     9                           	psect	cinit,global,reloc=2,class=CODE,delta=1
    10                           	psect	bssCOMRAM,global,class=COMRAM,space=1,delta=1,lowdata,noexec
    11                           	psect	dataCOMRAM,global,class=COMRAM,space=1,delta=1,lowdata,noexec
    12                           	psect	bssBANK0,global,class=BANK0,space=1,delta=1,lowdata,noexec
    13                           	psect	dataBANK0,global,class=BANK0,space=1,delta=1,lowdata,noexec
    14                           	psect	bssBANK1,global,class=BANK1,space=1,delta=1,lowdata,noexec
    15                           	psect	dataBANK1,global,class=BANK1,space=1,delta=1,lowdata,noexec
    16                           	psect	cstackBANK1,global,class=BANK1,space=1,delta=1,lowdata,noexec
    17                           	psect	cstackBANK0,global,class=BANK0,space=1,delta=1,lowdata,noexec
    18                           	psect	cstackCOMRAM,global,class=COMRAM,space=1,delta=1,lowdata,noexec
    19                           	psect	text0,global,reloc=2,class=CODE,delta=1
    20                           	psect	text1,global,reloc=2,class=CODE,delta=1,group=3
    21                           	psect	text2,global,reloc=2,class=CODE,delta=1
    22                           	psect	text3,global,reloc=2,class=CODE,delta=1
    23                           	psect	text4,global,reloc=2,class=CODE,delta=1
    24                           	psect	text5,global,reloc=2,class=CODE,delta=1
    25                           	psect	text6,global,reloc=2,class=CODE,delta=1
    26                           	psect	text7,global,reloc=2,class=CODE,delta=1
    27                           	psect	text8,global,reloc=2,class=CODE,delta=1
    28                           	psect	text9,global,reloc=2,class=CODE,delta=1
    29                           	psect	text10,global,reloc=2,class=CODE,delta=1
    30                           	psect	text11,global,reloc=2,class=CODE,delta=1
    31                           	psect	text12,global,reloc=2,class=CODE,delta=1
    32                           	psect	text13,global,reloc=2,class=CODE,delta=1
    33                           	psect	text14,global,reloc=2,class=CODE,delta=1
    34                           	psect	text15,global,reloc=2,class=CODE,delta=1
    35                           	psect	text16,global,reloc=2,class=CODE,delta=1
    36                           	psect	text17,global,reloc=2,class=CODE,delta=1
    37                           	psect	text18,global,reloc=2,class=CODE,delta=1
    38                           	psect	text19,global,reloc=2,class=CODE,delta=1
    39                           	psect	text20,global,reloc=2,class=CODE,delta=1
    40                           	psect	text21,global,reloc=2,class=CODE,delta=1
    41                           	psect	text22,global,reloc=2,class=CODE,delta=1
    42                           	psect	text23,global,reloc=2,class=CODE,delta=1
    43                           	psect	text24,global,reloc=2,class=CODE,delta=1
    44                           	psect	text25,global,reloc=2,class=CODE,delta=1
    45                           	psect	text26,global,reloc=2,class=CODE,delta=1
    46                           	psect	text27,global,reloc=2,class=CODE,delta=1,group=3
    47                           	psect	text28,global,reloc=2,class=CODE,delta=1,group=1
    48                           	psect	text29,global,reloc=2,class=CODE,delta=1,group=1
    49                           	psect	text30,global,reloc=2,class=CODE,delta=1,group=3
    50                           	psect	text31,global,reloc=2,class=CODE,delta=1,group=3
    51                           	psect	text32,global,reloc=2,class=CODE,delta=1,group=3
    52                           	psect	text33,global,reloc=2,class=CODE,delta=1,group=2
    53                           	psect	text34,global,reloc=2,class=CODE,delta=1,group=2
    54                           	psect	text35,global,reloc=2,class=CODE,delta=1,group=3
    55                           	psect	text36,global,reloc=2,class=CODE,delta=1,group=2
    56                           	psect	intcode,global,reloc=2,class=CODE,delta=1
    57                           	psect	intcode_body,global,reloc=2,class=CODE,delta=1
    58                           	psect	text38,global,reloc=2,class=CODE,delta=1
    59                           	psect	text39,global,reloc=2,class=CODE,delta=1
    60                           	psect	text40,global,reloc=2,class=CODE,delta=1
    61                           	psect	text41,global,reloc=2,class=CODE,delta=1
    62                           	psect	text42,global,reloc=2,class=CODE,delta=1
    63                           	psect	text43,global,reloc=2,class=CODE,delta=1
    64                           	psect	text44,global,reloc=2,class=CODE,delta=1
    65                           	psect	text45,global,reloc=2,class=CODE,delta=1
    66                           	psect	text46,global,reloc=2,class=CODE,delta=1
    67                           	psect	text47,global,reloc=2,class=CODE,delta=1
    68                           	psect	text48,global,reloc=2,class=CODE,delta=1
    69                           	psect	text49,global,reloc=2,class=CODE,delta=1
    70                           	psect	text50,global,reloc=2,class=CODE,delta=1
    71                           	psect	text51,global,reloc=2,class=CODE,delta=1
    72                           	psect	text52,global,reloc=2,class=CODE,delta=1
    73                           	psect	text53,global,reloc=2,class=CODE,delta=1
    74                           	psect	text54,global,reloc=2,class=CODE,delta=1
    75                           	psect	text55,global,reloc=2,class=CODE,delta=1
    76                           	psect	text56,global,reloc=2,class=CODE,delta=1
    77                           	psect	text57,global,reloc=2,class=CODE,delta=1
    78                           	psect	text58,global,reloc=2,class=CODE,delta=1
    79                           	psect	text59,global,reloc=2,class=CODE,delta=1
    80                           	psect	text60,global,reloc=2,class=CODE,delta=1
    81                           	psect	text61,global,reloc=2,class=CODE,delta=1
    82                           	psect	intsave_regs,global,class=BIGRAM,space=1,delta=1,noexec
    83                           	psect	text62,global,reloc=2,class=CODE,delta=1
    84                           	psect	rparam,global,class=COMRAM,space=1,delta=1,noexec
    85                           	psect	temp,global,ovrld,common,class=COMRAM,space=1,delta=1
    86                           	psect	config,global,abs,ovrld,class=CONFIG,space=4,delta=1,noexec
    87   000000                     
    88                           ; Generated 23/03/2023 GMT
    89                           ; 
    90                           ; Copyright © 2023, Microchip Technology Inc. and its subsidiaries ("Microchip")
    91                           ; All rights reserved.
    92                           ; 
    93                           ; This software is developed by Microchip Technology Inc. and its subsidiaries ("Microch
      +                          ip").
    94                           ; 
    95                           ; Redistribution and use in source and binary forms, with or without modification, are
    96                           ; permitted provided that the following conditions are met:
    97                           ; 
    98                           ;     1. Redistributions of source code must retain the above copyright notice, this lis
      +                          t of
    99                           ;        conditions and the following disclaimer.
   100                           ; 
   101                           ;     2. Redistributions in binary form must reproduce the above copyright notice, this 
      +                          list
   102                           ;        of conditions and the following disclaimer in the documentation and/or other
   103                           ;        materials provided with the distribution. Publication is not required when
   104                           ;        this file is used in an embedded application.
   105                           ; 
   106                           ;     3. Microchip's name may not be used to endorse or promote products derived from th
      +                          is
   107                           ;        software without specific prior written permission.
   108                           ; 
   109                           ; THIS SOFTWARE IS PROVIDED BY MICROCHIP "AS IS" AND ANY EXPRESS OR IMPLIED WARRANTIES,
   110                           ; INCLUDING, BUT NOT LIMITED TO, THE IMPLIED WARRANTIES OF MERCHANTABILITY AND FITNESS F
      +                          OR
   111                           ; PURPOSE ARE DISCLAIMED.  IN NO EVENT SHALL MICROCHIP BE LIABLE FOR ANY DIRECT, INDIREC
      +                          T,
   112                           ; INCIDENTAL, SPECIAL, EXEMPLARY, OR CONSEQUENTIAL DAMAGES (INCLUDING BUT NOT LIMITED TO
   113                           ; PROCUREMENT OF SUBSTITUTE GOODS OR SERVICES; LOSS OF USE, DATA OR PROFITS; OR BUSINESS
   114                           ; INTERRUPTION) HOWSOEVER CAUSED AND ON ANY THEORY OF LIABILITY, WHETHER IN CONTRACT, ST
      +                          RICT
   115                           ; LIABILITY, OR TORT (INCLUDING NEGLIGENCE OR OTHERWISE) ARISING IN ANY WAY OUT OF THE U
      +                          SE OF
   116                           ; THIS SOFTWARE, EVEN IF ADVISED OF THE POSSIBILITY OF SUCH DAMAGE.
   117                           ; 
   118                           ; 
   119                           ; Code-generator required, PIC18F4620 Definitions
   120                           ; 
   121                           ; SFR Addresses
   122   000000                     
   123                           	psect	idataCOMRAM
   124   0031D4                     __pidataCOMRAM:
   125                           	callstack 0
   126                           
   127                           ;initializer for _forsa
   128   0031D4  03                 	db	3
   129                           
   130                           ;initializer for _flag
   131   0031D5  01                 	db	1
   132                           
   133                           ;initializer for _counter_pass
   134   0031D6  04                 	db	4
   135                           
   136                           ;initializer for _ret
   137   0031D7  01                 	db	1
   138                           
   139                           ;initializer for _RB7_Flag
   140   0031D8  01                 	db	1
   141                           
   142                           ;initializer for _RB6_Flag
   143   0031D9  01                 	db	1
   144                           
   145                           ;initializer for _RB5_Flag
   146   0031DA  01                 	db	1
   147                           
   148                           ;initializer for _RB4_Flag
   149   0031DB  01                 	db	1
   150                           
   151                           ;initializer for _lcd_1
   152   0031DC  02                 	db	2
   153   0031DD  0A                 	db	10
   154   0031DE  12                 	db	18
   155   0031DF  1A                 	db	26
   156   0031E0  03                 	db	3
   157   0031E1  0B                 	db	11
   158                           
   159                           ;initializer for _motor_1
   160   0031E2  00                 	db	0
   161   0031E3  08                 	db	8
   162                           
   163                           ;initializer for _led3
   164   0031E4  32                 	db	50
   165                           
   166                           ;initializer for _led2
   167   0031E5  22                 	db	34
   168                           
   169                           ;initializer for _led_green
   170   0031E6  23                 	db	35
   171                           
   172                           ;initializer for _led_red
   173   0031E7  33                 	db	51
   174                           
   175                           	psect	idataBANK0
   176   002A74                     __pidataBANK0:
   177                           	callstack 0
   178                           
   179                           ;initializer for _port_register
   180   002A74  80                 	db	128
   181   002A75  0F                 	db	15
   182   002A76  81                 	db	129
   183   002A77  0F                 	db	15
   184   002A78  82                 	db	130
   185   002A79  0F                 	db	15
   186   002A7A  83                 	db	131
   187   002A7B  0F                 	db	15
   188   002A7C  83                 	db	131
   189   002A7D  0F                 	db	15
   190                           
   191                           ;initializer for _lat_register
   192   002A7E  89                 	db	137
   193   002A7F  0F                 	db	15
   194   002A80  8A                 	db	138
   195   002A81  0F                 	db	15
   196   002A82  8B                 	db	139
   197   002A83  0F                 	db	15
   198   002A84  8C                 	db	140
   199   002A85  0F                 	db	15
   200   002A86  8D                 	db	141
   201   002A87  0F                 	db	15
   202                           
   203                           ;initializer for _tris_register
   204   002A88  92                 	db	146
   205   002A89  0F                 	db	15
   206   002A8A  93                 	db	147
   207   002A8B  0F                 	db	15
   208   002A8C  94                 	db	148
   209   002A8D  0F                 	db	15
   210   002A8E  95                 	db	149
   211   002A8F  0F                 	db	15
   212   002A90  96                 	db	150
   213   002A91  0F                 	db	15
   214                           
   215                           ;initializer for _adc_3
   216   002A92  00                 	db	0
   217   002A93  00                 	db	0
   218   002A94  00                 	db	0
   219   002A95  50                 	db	80
   220   002A96  02                 	db	2
   221   002A97  05                 	db	5
   222   002A98  05                 	db	5
   223   002A99  01                 	db	1
   224                           
   225                           ;initializer for _adc_2
   226   002A9A  00                 	db	0
   227   002A9B  00                 	db	0
   228   002A9C  00                 	db	0
   229   002A9D  48                 	db	72
   230   002A9E  01                 	db	1
   231   002A9F  05                 	db	5
   232   002AA0  05                 	db	5
   233   002AA1  01                 	db	1
   234                           
   235                           ;initializer for _adc_1
   236   002AA2  00                 	db	0
   237   002AA3  00                 	db	0
   238   002AA4  00                 	db	0
   239   002AA5  40                 	db	64
   240   002AA6  00                 	db	0
   241   002AA7  05                 	db	5
   242   002AA8  05                 	db	5
   243   002AA9  01                 	db	1
   244                           
   245                           ;initializer for _rb7_int_obj
   246   002AAA  10                 	db	low _RB7_HIGH_Int_APP_ISR
   247   002AAB  32                 	db	high _RB7_HIGH_Int_APP_ISR
   248   002AAC  FC                 	db	low _RB7_LOW_Int_APP_ISR
   249   002AAD  31                 	db	high _RB7_LOW_Int_APP_ISR
   250   002AAE  79                 	db	121
   251   002AAF  01                 	db	1
   252                           
   253                           ;initializer for _rb6_int_obj
   254   002AB0  06                 	db	low _RB6_HIGH_Int_APP_ISR
   255   002AB1  32                 	db	high _RB6_HIGH_Int_APP_ISR
   256   002AB2  F2                 	db	low _RB6_LOW_Int_APP_ISR
   257   002AB3  31                 	db	high _RB6_LOW_Int_APP_ISR
   258   002AB4  71                 	db	113
   259   002AB5  01                 	db	1
   260                           
   261                           ;initializer for _rb5_int_obj
   262   002AB6  2E                 	db	low _RB5_HIGH_Int_APP_ISR
   263   002AB7  32                 	db	high _RB5_HIGH_Int_APP_ISR
   264   002AB8  2A                 	db	low _RB5_LOW_Int_APP_ISR
   265   002AB9  32                 	db	high _RB5_LOW_Int_APP_ISR
   266   002ABA  69                 	db	105
   267   002ABB  01                 	db	1
   268                           
   269                           ;initializer for _rb4_int_obj
   270   002ABC  30                 	db	low _RB4_HIGH_Int_APP_ISR
   271   002ABD  32                 	db	high _RB4_HIGH_Int_APP_ISR
   272   002ABE  2C                 	db	low _RB4_LOW_Int_APP_ISR
   273   002ABF  32                 	db	high _RB4_LOW_Int_APP_ISR
   274   002AC0  61                 	db	97
   275   002AC1  01                 	db	1
   276                           
   277                           ;initializer for _int2_obj
   278   002AC2  1A                 	db	low _INT2_APP_ISR
   279   002AC3  32                 	db	high _INT2_APP_ISR
   280   002AC4  51                 	db	81
   281   002AC5  00                 	db	0
   282   002AC6  02                 	db	2
   283   002AC7  00                 	db	0
   284                           
   285                           ;initializer for _int1_obj
   286   002AC8  32                 	db	low _INT1_APP_ISR
   287   002AC9  32                 	db	high _INT1_APP_ISR
   288   002ACA  49                 	db	73
   289   002ACB  01                 	db	1
   290   002ACC  01                 	db	1
   291   002ACD  01                 	db	1
   292                           
   293                           ;initializer for _int0_obj
   294   002ACE  34                 	db	low _INT0_APP_ISR
   295   002ACF  32                 	db	high _INT0_APP_ISR
   296   002AD0  41                 	db	65
   297   002AD1  01                 	db	1
   298   002AD2  00                 	db	0
   299   002AD3  01                 	db	1
   300                           
   301                           ;initializer for _buuton_1
   302   002AD4  60                 	db	96
   303   002AD5  00                 	db	0
   304   002AD6  00                 	db	0
   305                           
   306                           ;initializer for _KeyPad1
   307   002AD7  39                 	db	57
   308   002AD8  31                 	db	49
   309   002AD9  29                 	db	41
   310   002ADA  21                 	db	33
   311   002ADB  59                 	db	89
   312   002ADC  51                 	db	81
   313   002ADD  49                 	db	73
   314   002ADE  41                 	db	65
   315                           
   316                           ;initializer for _pass
   317   002ADF  31                 	db	49
   318   002AE0  31                 	db	49
   319   002AE1  31                 	db	49
   320   002AE2  31                 	db	49
   321   002AE3  00                 	db	0
   322   002AE4  00                 	db	0
   323                           
   324                           	psect	idataBANK1
   325   0031E8                     __pidataBANK1:
   326                           	callstack 0
   327                           
   328                           ;initializer for _lcd_2
   329   0031E8  32                 	db	50
   330   0031E9  3A                 	db	58
   331   0031EA  03                 	db	3
   332   0031EB  0B                 	db	11
   333   0031EC  13                 	db	19
   334   0031ED  1B                 	db	27
   335   0031EE  23                 	db	35
   336   0031EF  2B                 	db	43
   337   0031F0  33                 	db	51
   338   0031F1  3B                 	db	59
   339                           
   340                           	psect	smallconst
   341   001000                     __psmallconst:
   342                           	callstack 0
   343   001000  00                 	db	0
   344   001001                     _btn_values:
   345                           	callstack 0
   346   001001  37                 	db	55
   347   001002  38                 	db	56
   348   001003  39                 	db	57
   349   001004  2F                 	db	47
   350   001005  34                 	db	52
   351   001006  35                 	db	53
   352   001007  36                 	db	54
   353   001008  2A                 	db	42
   354   001009  31                 	db	49
   355   00100A  32                 	db	50
   356   00100B  33                 	db	51
   357   00100C  2B                 	db	43
   358   00100D  25                 	db	37
   359   00100E  30                 	db	48
   360   00100F  3D                 	db	61
   361   001010  2D                 	db	45
   362   001011                     __end_of_btn_values:
   363                           	callstack 0
   364   000000                     _INTCON2bits	set	4081
   365   000000                     _EECON2	set	4007
   366   000000                     _ADCON1bits	set	4033
   367   000000                     _ADRESL	set	4035
   368   000000                     _ADRESH	set	4036
   369   000000                     _INTCONbits	set	4082
   370   000000                     _PORTBbits	set	3969
   371   000000                     _PIE1bits	set	3997
   372   000000                     _ADCON2bits	set	4032
   373   000000                     _ADCON0bits	set	4034
   374   000000                     _PORTD	set	3971
   375   000000                     _PORTC	set	3970
   376   000000                     _PORTB	set	3969
   377   000000                     _PORTA	set	3968
   378   000000                     _LATA	set	3977
   379   000000                     _TRISA	set	3986
   380   000000                     _EECON1bits	set	4006
   381   000000                     _EEDATA	set	4008
   382   000000                     _EEADR	set	4009
   383   000000                     _EEADRH	set	4010
   384   000000                     _PIR1bits	set	3998
   385   000000                     _INTCON3bits	set	4080
   386   000000                     _TRISE	set	3990
   387   000000                     _TRISD	set	3989
   388   000000                     _TRISC	set	3988
   389   000000                     _TRISB	set	3987
   390   000000                     _LATE	set	3981
   391   000000                     _LATD	set	3980
   392   000000                     _LATC	set	3979
   393   000000                     _LATB	set	3978
   394   001011                     STR_11:
   395   001011  79                 	db	121	;'y'
   396   001012  6F                 	db	111	;'o'
   397   001013  75                 	db	117	;'u'
   398   001014  20                 	db	32
   399   001015  61                 	db	97	;'a'
   400   001016  72                 	db	114	;'r'
   401   001017  65                 	db	101	;'e'
   402   001018  20                 	db	32
   403   001019  69                 	db	105	;'i'
   404   00101A  6E                 	db	110	;'n'
   405   00101B  20                 	db	32
   406   00101C  62                 	db	98	;'b'
   407   00101D  6C                 	db	108	;'l'
   408   00101E  6F                 	db	111	;'o'
   409   00101F  63                 	db	99	;'c'
   410   001020  6B                 	db	107	;'k'
   411   001021  00                 	db	0
   412   001022                     STR_9:
   413   001022  79                 	db	121	;'y'
   414   001023  6F                 	db	111	;'o'
   415   001024  75                 	db	117	;'u'
   416   001025  20                 	db	32
   417   001026  68                 	db	104	;'h'
   418   001027  61                 	db	97	;'a'
   419   001028  76                 	db	118	;'v'
   420   001029  65                 	db	101	;'e'
   421   00102A  20                 	db	32
   422   00102B  20                 	db	32
   423   00102C  20                 	db	32
   424   00102D  74                 	db	116	;'t'
   425   00102E  72                 	db	114	;'r'
   426   00102F  69                 	db	105	;'i'
   427   001030  65                 	db	101	;'e'
   428   001031  73                 	db	115	;'s'
   429   001032  00                 	db	0
   430   001033                     STR_4:
   431   001033  57                 	db	87	;'W'
   432   001034  65                 	db	101	;'e'
   433   001035  6C                 	db	108	;'l'
   434   001036  63                 	db	99	;'c'
   435   001037  6F                 	db	111	;'o'
   436   001038  6D                 	db	109	;'m'
   437   001039  65                 	db	101	;'e'
   438   00103A  20                 	db	32
   439   00103B  59                 	db	89	;'Y'
   440   00103C  6F                 	db	111	;'o'
   441   00103D  75                 	db	117	;'u'
   442   00103E  73                 	db	115	;'s'
   443   00103F  73                 	db	115	;'s'
   444   001040  65                 	db	101	;'e'
   445   001041  66                 	db	102	;'f'
   446   001042  00                 	db	0
   447   001043                     STR_15:
   448   001043  33                 	db	51	;'3'
   449   001044  2D                 	db	45
   450   001045  74                 	db	116	;'t'
   451   001046  6F                 	db	111	;'o'
   452   001047  67                 	db	103	;'g'
   453   001048  67                 	db	103	;'g'
   454   001049  6C                 	db	108	;'l'
   455   00104A  65                 	db	101	;'e'
   456   00104B  20                 	db	32
   457   00104C  34                 	db	52	;'4'
   458   00104D  2D                 	db	45
   459   00104E  73                 	db	115	;'s'
   460   00104F  74                 	db	116	;'t'
   461   001050  6F                 	db	111	;'o'
   462   001051  70                 	db	112	;'p'
   463   001052  00                 	db	0
   464   001053                     STR_10:
   465   001053  79                 	db	121	;'y'
   466   001054  6F                 	db	111	;'o'
   467   001055  75                 	db	117	;'u'
   468   001056  20                 	db	32
   469   001057  75                 	db	117	;'u'
   470   001058  73                 	db	115	;'s'
   471   001059  65                 	db	101	;'e'
   472   00105A  20                 	db	32
   473   00105B  33                 	db	51	;'3'
   474   00105C  20                 	db	32
   475   00105D  74                 	db	116	;'t'
   476   00105E  72                 	db	114	;'r'
   477   00105F  69                 	db	105	;'i'
   478   001060  65                 	db	101	;'e'
   479   001061  73                 	db	115	;'s'
   480   001062  00                 	db	0
   481   001063                     STR_5:
   482   001063  57                 	db	87	;'W'
   483   001064  72                 	db	114	;'r'
   484   001065  69                 	db	105	;'i'
   485   001066  74                 	db	116	;'t'
   486   001067  65                 	db	101	;'e'
   487   001068  20                 	db	32
   488   001069  79                 	db	121	;'y'
   489   00106A  6F                 	db	111	;'o'
   490   00106B  75                 	db	117	;'u'
   491   00106C  72                 	db	114	;'r'
   492   00106D  20                 	db	32
   493   00106E  70                 	db	112	;'p'
   494   00106F  61                 	db	97	;'a'
   495   001070  73                 	db	115	;'s'
   496   001071  73                 	db	115	;'s'
   497   001072  00                 	db	0
   498   001073                     STR_14:
   499   001073  31                 	db	49	;'1'
   500   001074  2D                 	db	45
   501   001075  72                 	db	114	;'r'
   502   001076  69                 	db	105	;'i'
   503   001077  67                 	db	103	;'g'
   504   001078  68                 	db	104	;'h'
   505   001079  74                 	db	116	;'t'
   506   00107A  20                 	db	32
   507   00107B  32                 	db	50	;'2'
   508   00107C  2D                 	db	45
   509   00107D  6C                 	db	108	;'l'
   510   00107E  65                 	db	101	;'e'
   511   00107F  66                 	db	102	;'f'
   512   001080  74                 	db	116	;'t'
   513   001081  00                 	db	0
   514   001082                     STR_12:
   515   001082  79                 	db	121	;'y'
   516   001083  6F                 	db	111	;'o'
   517   001084  75                 	db	117	;'u'
   518   001085  20                 	db	32
   519   001086  63                 	db	99	;'c'
   520   001087  61                 	db	97	;'a'
   521   001088  6E                 	db	110	;'n'
   522   001089  20                 	db	32
   523   00108A  75                 	db	117	;'u'
   524   00108B  73                 	db	115	;'s'
   525   00108C  65                 	db	101	;'e'
   526   00108D  20                 	db	32
   527   00108E  00                 	db	0
   528   00108F                     STR_7:
   529   00108F  43                 	db	67	;'C'
   530   001090  6F                 	db	111	;'o'
   531   001091  72                 	db	114	;'r'
   532   001092  72                 	db	114	;'r'
   533   001093  65                 	db	101	;'e'
   534   001094  63                 	db	99	;'c'
   535   001095  74                 	db	116	;'t'
   536   001096  20                 	db	32
   537   001097  50                 	db	80	;'P'
   538   001098  61                 	db	97	;'a'
   539   001099  73                 	db	115	;'s'
   540   00109A  73                 	db	115	;'s'
   541   00109B  00                 	db	0
   542   00109C                     STR_16:
   543   00109C  63                 	db	99	;'c'
   544   00109D  68                 	db	104	;'h'
   545   00109E  6F                 	db	111	;'o'
   546   00109F  6F                 	db	111	;'o'
   547   0010A0  73                 	db	115	;'s'
   548   0010A1  65                 	db	101	;'e'
   549   0010A2  20                 	db	32
   550   0010A3  31                 	db	49	;'1'
   551   0010A4  2D                 	db	45
   552   0010A5  3E                 	db	62	;'>'
   553   0010A6  34                 	db	52	;'4'
   554   0010A7  00                 	db	0
   555   0010A8                     STR_8:
   556   0010A8  57                 	db	87	;'W'
   557   0010A9  72                 	db	114	;'r'
   558   0010AA  6F                 	db	111	;'o'
   559   0010AB  6E                 	db	110	;'n'
   560   0010AC  67                 	db	103	;'g'
   561   0010AD  20                 	db	32
   562   0010AE  50                 	db	80	;'P'
   563   0010AF  61                 	db	97	;'a'
   564   0010B0  73                 	db	115	;'s'
   565   0010B1  73                 	db	115	;'s'
   566   0010B2  00                 	db	0
   567   0010B3                     STR_13:
   568   0010B3  6D                 	db	109	;'m'
   569   0010B4  6F                 	db	111	;'o'
   570   0010B5  74                 	db	116	;'t'
   571   0010B6  6F                 	db	111	;'o'
   572   0010B7  72                 	db	114	;'r'
   573   0010B8  20                 	db	32
   574   0010B9  00                 	db	0
   575   0010BA                     STR_1:
   576   0010BA  25                 	db	37
   577   0010BB  69                 	db	105	;'i'
   578   0010BC  00                 	db	0
   579   0010BD                     STR_6:
   580   0010BD  2A                 	db	42
   581   0010BE  00                 	db	0
   582   0010BF  00                 	db	0	; dummy byte at the end
   583   000000                     
   584                           ; #config settings
   585                           
   586                           	psect	cinit
   587   002514                     __pcinit:
   588                           	callstack 0
   589   002514                     start_initialization:
   590                           	callstack 0
   591   002514                     __initialization:
   592                           	callstack 0
   593                           
   594                           ; Initialize objects allocated to BANK1 (10 bytes)
   595                           ; load TBLPTR registers with __pidataBANK1
   596   002514  0EE8               	movlw	low __pidataBANK1
   597   002516  6EF6               	movwf	tblptrl,c
   598   002518  0E31               	movlw	high __pidataBANK1
   599   00251A  6EF7               	movwf	tblptrh,c
   600   00251C  0E00               	movlw	low (__pidataBANK1 shr (0+16))
   601   00251E  6EF8               	movwf	tblptru,c
   602   002520  EE01  F034         	lfsr	0,__pdataBANK1
   603   002524  EE10 F00A          	lfsr	1,10
   604   002528                     copy_data0:
   605   002528  0009               	tblrd		*+
   606   00252A  CFF5 FFEE          	movff	tablat,postinc0
   607   00252E  50E5               	movf	postdec1,w,c
   608   002530  50E1               	movf	fsr1l,w,c
   609   002532  E1FA               	bnz	copy_data0
   610                           
   611                           ; Initialize objects allocated to BANK0 (113 bytes)
   612                           ; load TBLPTR registers with __pidataBANK0
   613   002534  0E74               	movlw	low __pidataBANK0
   614   002536  6EF6               	movwf	tblptrl,c
   615   002538  0E2A               	movlw	high __pidataBANK0
   616   00253A  6EF7               	movwf	tblptrh,c
   617   00253C  0E00               	movlw	low (__pidataBANK0 shr (0+16))
   618   00253E  6EF8               	movwf	tblptru,c
   619   002540  EE00  F080         	lfsr	0,__pdataBANK0
   620   002544  EE10 F071          	lfsr	1,113
   621   002548                     copy_data1:
   622   002548  0009               	tblrd		*+
   623   00254A  CFF5 FFEE          	movff	tablat,postinc0
   624   00254E  50E5               	movf	postdec1,w,c
   625   002550  50E1               	movf	fsr1l,w,c
   626   002552  E1FA               	bnz	copy_data1
   627                           
   628                           ; Initialize objects allocated to COMRAM (20 bytes)
   629                           ; load TBLPTR registers with __pidataCOMRAM
   630   002554  0ED4               	movlw	low __pidataCOMRAM
   631   002556  6EF6               	movwf	tblptrl,c
   632   002558  0E31               	movlw	high __pidataCOMRAM
   633   00255A  6EF7               	movwf	tblptrh,c
   634   00255C  0E00               	movlw	low (__pidataCOMRAM shr (0+16))
   635   00255E  6EF8               	movwf	tblptru,c
   636   002560  EE00  F05A         	lfsr	0,__pdataCOMRAM
   637   002564  EE10 F014          	lfsr	1,20
   638   002568                     copy_data2:
   639   002568  0009               	tblrd		*+
   640   00256A  CFF5 FFEE          	movff	tablat,postinc0
   641   00256E  50E5               	movf	postdec1,w,c
   642   002570  50E1               	movf	fsr1l,w,c
   643   002572  E1FA               	bnz	copy_data2
   644                           
   645                           ; Clear objects allocated to BANK1 (32 bytes)
   646   002574  EE01  F000         	lfsr	0,__pbssBANK1
   647   002578  0E20               	movlw	32
   648   00257A                     clear_0:
   649   00257A  6AEE               	clrf	postinc0,c
   650   00257C  06E8               	decf	wreg,f,c
   651   00257E  E1FD               	bnz	clear_0
   652                           
   653                           ; Clear objects allocated to BANK0 (12 bytes)
   654   002580  EE00  F0F1         	lfsr	0,__pbssBANK0
   655   002584  0E0C               	movlw	12
   656   002586                     clear_1:
   657   002586  6AEE               	clrf	postinc0,c
   658   002588  06E8               	decf	wreg,f,c
   659   00258A  E1FD               	bnz	clear_1
   660                           
   661                           ; Clear objects allocated to COMRAM (41 bytes)
   662   00258C  EE00  F031         	lfsr	0,__pbssCOMRAM
   663   002590  0E29               	movlw	41
   664   002592                     clear_2:
   665   002592  6AEE               	clrf	postinc0,c
   666   002594  06E8               	decf	wreg,f,c
   667   002596  E1FD               	bnz	clear_2
   668   002598                     end_of_initialization:
   669                           	callstack 0
   670   002598                     __end_of__initialization:
   671                           	callstack 0
   672   002598  906E               	bcf	int$flags,0,c	;clear compiler interrupt flag (level 1)
   673   00259A  926E               	bcf	int$flags,1,c	;clear compiler interrupt flag (level 2)
   674   00259C  0100               	movlb	0
   675   00259E  EF60  F008         	goto	_main	;jump to C main() function
   676                           
   677                           	psect	bssCOMRAM
   678   000031                     __pbssCOMRAM:
   679                           	callstack 0
   680   000031                     _width:
   681                           	callstack 0
   682   000031                     	ds	2
   683   000033                     _prec:
   684                           	callstack 0
   685   000033                     	ds	2
   686   000035                     _result:
   687                           	callstack 0
   688   000035                     	ds	2
   689   000037                     _Interrupt_handler_RB7_LOW:
   690                           	callstack 0
   691   000037                     	ds	2
   692   000039                     _Interrupt_handler_RB6_LOW:
   693                           	callstack 0
   694   000039                     	ds	2
   695   00003B                     _Interrupt_handler_RB5_LOW:
   696                           	callstack 0
   697   00003B                     	ds	2
   698   00003D                     _Interrupt_handler_RB4_LOW:
   699                           	callstack 0
   700   00003D                     	ds	2
   701   00003F                     _Interrupt_handler_RB7_HIGH:
   702                           	callstack 0
   703   00003F                     	ds	2
   704   000041                     _Interrupt_handler_RB6_HIGH:
   705                           	callstack 0
   706   000041                     	ds	2
   707   000043                     _Interrupt_handler_RB5_HIGH:
   708                           	callstack 0
   709   000043                     	ds	2
   710   000045                     _Interrupt_handler_RB4_HIGH:
   711                           	callstack 0
   712   000045                     	ds	2
   713   000047                     _Interrupt_handler_INT2:
   714                           	callstack 0
   715   000047                     	ds	2
   716   000049                     _Interrupt_handler_INT1:
   717                           	callstack 0
   718   000049                     	ds	2
   719   00004B                     _Interrupt_handler_INT0:
   720                           	callstack 0
   721   00004B                     	ds	2
   722   00004D                     _ADC_INTERRUPT_HANDLER:
   723                           	callstack 0
   724   00004D                     	ds	2
   725   00004F                     _flags:
   726                           	callstack 0
   727   00004F                     	ds	1
   728   000050                     _counter_value:
   729                           	callstack 0
   730   000050                     	ds	1
   731   000051                     relay_turn_toggle@F3494:
   732                           	callstack 0
   733   000051                     	ds	1
   734   000052                     relay_turn_off@F3489:
   735                           	callstack 0
   736   000052                     	ds	1
   737   000053                     relay_turn_on@F3484:
   738                           	callstack 0
   739   000053                     	ds	1
   740   000054                     relay_intialize@F3479:
   741                           	callstack 0
   742   000054                     	ds	1
   743   000055                     led_turn_toggle@F3494:
   744                           	callstack 0
   745   000055                     	ds	1
   746   000056                     led_turn_off@F3489:
   747                           	callstack 0
   748   000056                     	ds	1
   749   000057                     led_turn_on@F3484:
   750                           	callstack 0
   751   000057                     	ds	1
   752   000058                     led_initialize@F3479:
   753                           	callstack 0
   754   000058                     	ds	1
   755   000059                     _value:
   756                           	callstack 0
   757   000059                     	ds	1
   758                           
   759                           	psect	dataCOMRAM
   760   00005A                     __pdataCOMRAM:
   761                           	callstack 0
   762   00005A                     _forsa:
   763                           	callstack 0
   764   00005A                     	ds	1
   765   00005B                     _flag:
   766                           	callstack 0
   767   00005B                     	ds	1
   768   00005C                     _counter_pass:
   769                           	callstack 0
   770   00005C                     	ds	1
   771   00005D                     _ret:
   772                           	callstack 0
   773   00005D                     	ds	1
   774   00005E                     _RB7_Flag:
   775                           	callstack 0
   776   00005E                     	ds	1
   777   00005F                     _RB6_Flag:
   778                           	callstack 0
   779   00005F                     	ds	1
   780   000060                     _RB5_Flag:
   781                           	callstack 0
   782   000060                     	ds	1
   783   000061                     _RB4_Flag:
   784                           	callstack 0
   785   000061                     	ds	1
   786   000062                     _lcd_1:
   787                           	callstack 0
   788   000062                     	ds	6
   789   000068                     _motor_1:
   790                           	callstack 0
   791   000068                     	ds	2
   792   00006A                     _led3:
   793                           	callstack 0
   794   00006A                     	ds	1
   795   00006B                     _led2:
   796                           	callstack 0
   797   00006B                     	ds	1
   798   00006C                     _led_green:
   799                           	callstack 0
   800   00006C                     	ds	1
   801   00006D                     _led_red:
   802                           	callstack 0
   803   00006D                     	ds	1
   804                           
   805                           	psect	bssBANK0
   806   0000F1                     __pbssBANK0:
   807                           	callstack 0
   808   0000F1                     _YourPass:
   809                           	callstack 0
   810   0000F1                     	ds	6
   811   0000F7                     _result_txt:
   812                           	callstack 0
   813   0000F7                     	ds	6
   814                           
   815                           	psect	dataBANK0
   816   000080                     __pdataBANK0:
   817                           	callstack 0
   818   000080                     _port_register:
   819                           	callstack 0
   820   000080                     	ds	10
   821   00008A                     _lat_register:
   822                           	callstack 0
   823   00008A                     	ds	10
   824   000094                     _tris_register:
   825                           	callstack 0
   826   000094                     	ds	10
   827   00009E                     _adc_3:
   828                           	callstack 0
   829   00009E                     	ds	8
   830   0000A6                     _adc_2:
   831                           	callstack 0
   832   0000A6                     	ds	8
   833   0000AE                     _adc_1:
   834                           	callstack 0
   835   0000AE                     	ds	8
   836   0000B6                     _rb7_int_obj:
   837                           	callstack 0
   838   0000B6                     	ds	6
   839   0000BC                     _rb6_int_obj:
   840                           	callstack 0
   841   0000BC                     	ds	6
   842   0000C2                     _rb5_int_obj:
   843                           	callstack 0
   844   0000C2                     	ds	6
   845   0000C8                     _rb4_int_obj:
   846                           	callstack 0
   847   0000C8                     	ds	6
   848   0000CE                     _int2_obj:
   849                           	callstack 0
   850   0000CE                     	ds	6
   851   0000D4                     _int1_obj:
   852                           	callstack 0
   853   0000D4                     	ds	6
   854   0000DA                     _int0_obj:
   855                           	callstack 0
   856   0000DA                     	ds	6
   857   0000E0                     _buuton_1:
   858                           	callstack 0
   859   0000E0                     	ds	3
   860   0000E3                     _KeyPad1:
   861                           	callstack 0
   862   0000E3                     	ds	8
   863   0000EB                     _pass:
   864                           	callstack 0
   865   0000EB                     	ds	6
   866                           
   867                           	psect	bssBANK1
   868   000100                     __pbssBANK1:
   869                           	callstack 0
   870   000100                     _dbuf:
   871                           	callstack 0
   872   000100                     	ds	32
   873                           
   874                           	psect	dataBANK1
   875   000134                     __pdataBANK1:
   876                           	callstack 0
   877   000134                     _lcd_2:
   878                           	callstack 0
   879   000134                     	ds	10
   880                           
   881                           	psect	cstackBANK1
   882   000120                     __pcstackBANK1:
   883                           	callstack 0
   884   000120                     ?_sprintf:
   885                           	callstack 0
   886   000120                     sprintf@s:
   887                           	callstack 0
   888                           
   889                           ; 1 bytes @ 0x0
   890   000120                     	ds	1
   891   000121                     sprintf@fmt:
   892                           	callstack 0
   893                           
   894                           ; 1 bytes @ 0x1
   895   000121                     	ds	3
   896   000124                     sprintf@ap:
   897                           	callstack 0
   898                           
   899                           ; 2 bytes @ 0x4
   900   000124                     	ds	2
   901   000126                     sprintf@f:
   902                           	callstack 0
   903                           
   904                           ; 12 bytes @ 0x6
   905   000126                     	ds	12
   906   000132                     ??_main:
   907                           
   908                           ; 1 bytes @ 0x12
   909   000132                     	ds	2
   910                           
   911                           	psect	cstackBANK0
   912   0000FD                     __pcstackBANK0:
   913                           	callstack 0
   914   0000FD                     convert_byte_to_string@value:
   915                           	callstack 0
   916   0000FD                     convert_short_to_string@value:
   917                           	callstack 0
   918                           
   919                           ; 2 bytes @ 0x0
   920   0000FD                     	ds	1
   921   0000FE                     convert_byte_to_string@ret:
   922                           	callstack 0
   923                           
   924                           ; 1 bytes @ 0x1
   925   0000FE                     	ds	1
   926   0000FF                     convert_short_to_string@str:
   927                           	callstack 0
   928                           
   929                           ; 1 bytes @ 0x2
   930   0000FF                     	ds	1
   931                           
   932                           	psect	cstackCOMRAM
   933   000001                     __pcstackCOMRAM:
   934                           	callstack 0
   935   000001                     i2gpio_pin_write_logic@_pin_config:
   936                           	callstack 0
   937   000001                     i2gpio_pin_toogle_logic@_pin_config:
   938                           	callstack 0
   939                           
   940                           ; 1 bytes @ 0x0
   941   000001                     	ds	1
   942   000002                     ??i2_gpio_pin_toogle_logic:
   943   000002                     i2gpio_pin_write_logic@logic:
   944                           	callstack 0
   945                           
   946                           ; 1 bytes @ 0x1
   947   000002                     	ds	1
   948   000003                     ??i2_gpio_pin_write_logic:
   949                           
   950                           ; 1 bytes @ 0x2
   951   000003                     	ds	3
   952   000006                     led_turn_toggle@led:
   953                           	callstack 0
   954                           
   955                           ; 1 bytes @ 0x5
   956   000006                     	ds	1
   957   000007                     ??_led_turn_toggle:
   958                           
   959                           ; 1 bytes @ 0x6
   960   000007                     	ds	1
   961   000008                     led_turn_toggle@pin_obj:
   962                           	callstack 0
   963   000008                     i2led_turn_on@led:
   964                           	callstack 0
   965   000008                     i2led_turn_off@led:
   966                           	callstack 0
   967                           
   968                           ; 1 bytes @ 0x7
   969   000008                     	ds	1
   970   000009                     ??i2_led_turn_on:
   971   000009                     ??i2_led_turn_off:
   972                           
   973                           ; 1 bytes @ 0x8
   974   000009                     	ds	1
   975   00000A                     i2led_turn_on@pin_obj:
   976                           	callstack 0
   977   00000A                     i2led_turn_off@pin_obj:
   978                           	callstack 0
   979                           
   980                           ; 1 bytes @ 0x9
   981   00000A                     	ds	1
   982   00000B                     RB4_ISR@RB4_source:
   983                           	callstack 0
   984   00000B                     RB5_ISR@RB5_source:
   985                           	callstack 0
   986   00000B                     RB6_ISR@RB6_source:
   987                           	callstack 0
   988   00000B                     RB7_ISR@RB7_source:
   989                           	callstack 0
   990                           
   991                           ; 1 bytes @ 0xA
   992   00000B                     	ds	1
   993   00000C                     ??_INTERRUPT_MANGER_:
   994                           
   995                           ; 1 bytes @ 0xB
   996   00000C                     	ds	6
   997   000012                     ?_strcmp:
   998                           	callstack 0
   999   000012                     ?___wmul:
  1000                           	callstack 0
  1001   000012                     ?___awdiv:
  1002                           	callstack 0
  1003   000012                     ?___awmod:
  1004                           	callstack 0
  1005   000012                     gpio_pin_direction_intialize@_pin_config:
  1006                           	callstack 0
  1007   000012                     gpio_pin_write_logic@_pin_config:
  1008                           	callstack 0
  1009   000012                     gpio_pin_read_logic@_pin_config:
  1010                           	callstack 0
  1011   000012                     gpio_pin_toogle_logic@_pin_config:
  1012                           	callstack 0
  1013   000012                     memset@dest:
  1014                           	callstack 0
  1015   000012                     strcmp@l:
  1016                           	callstack 0
  1017   000012                     ___wmul@multiplier:
  1018                           	callstack 0
  1019   000012                     ___awdiv@dividend:
  1020                           	callstack 0
  1021   000012                     ___awmod@dividend:
  1022                           	callstack 0
  1023   000012                     fputc@c:
  1024                           	callstack 0
  1025                           
  1026                           ; 2 bytes @ 0x11
  1027   000012                     	ds	1
  1028   000013                     ??_gpio_pin_direction_intialize:
  1029   000013                     ??_gpio_pin_toogle_logic:
  1030   000013                     gpio_pin_write_logic@logic:
  1031                           	callstack 0
  1032   000013                     gpio_pin_read_logic@logic:
  1033                           	callstack 0
  1034   000013                     strcmp@r:
  1035                           	callstack 0
  1036   000013                     memset@c:
  1037                           	callstack 0
  1038                           
  1039                           ; 2 bytes @ 0x12
  1040   000013                     	ds	1
  1041   000014                     ??_gpio_pin_write_logic:
  1042   000014                     ??_gpio_pin_read_logic:
  1043   000014                     ??_strcmp:
  1044   000014                     ___wmul@multiplicand:
  1045                           	callstack 0
  1046   000014                     ___awdiv@divisor:
  1047                           	callstack 0
  1048   000014                     ___awmod@divisor:
  1049                           	callstack 0
  1050   000014                     fputc@fp:
  1051                           	callstack 0
  1052                           
  1053                           ; 2 bytes @ 0x13
  1054   000014                     	ds	1
  1055   000015                     memset@n:
  1056                           	callstack 0
  1057                           
  1058                           ; 2 bytes @ 0x14
  1059   000015                     	ds	1
  1060   000016                     ??_fputc:
  1061   000016                     ___awdiv@counter:
  1062                           	callstack 0
  1063   000016                     ___awmod@counter:
  1064                           	callstack 0
  1065   000016                     ___wmul@product:
  1066                           	callstack 0
  1067                           
  1068                           ; 2 bytes @ 0x15
  1069   000016                     	ds	1
  1070   000017                     gpio_pin_toogle_logic@ret:
  1071                           	callstack 0
  1072   000017                     ___awdiv@sign:
  1073                           	callstack 0
  1074   000017                     ___awmod@sign:
  1075                           	callstack 0
  1076   000017                     memset@p:
  1077                           	callstack 0
  1078                           
  1079                           ; 1 bytes @ 0x16
  1080   000017                     	ds	1
  1081   000018                     ?_abs:
  1082                           	callstack 0
  1083   000018                     dc_motor_move_toggle@_dc_motor:
  1084                           	callstack 0
  1085   000018                     gpio_pin_direction_intialize@ret:
  1086                           	callstack 0
  1087   000018                     gpio_pin_read_logic@ret:
  1088                           	callstack 0
  1089   000018                     ___awdiv@quotient:
  1090                           	callstack 0
  1091   000018                     abs@a:
  1092                           	callstack 0
  1093                           
  1094                           ; 2 bytes @ 0x17
  1095   000018                     	ds	1
  1096   000019                     dc_motor_intialize@_dc_motor:
  1097                           	callstack 0
  1098   000019                     dc_motor_move_toggle@ret:
  1099                           	callstack 0
  1100   000019                     led_initialize@led:
  1101                           	callstack 0
  1102   000019                     gpio_pin_write_logic@ret:
  1103                           	callstack 0
  1104                           
  1105                           ; 1 bytes @ 0x18
  1106   000019                     	ds	1
  1107   00001A                     ??_abs:
  1108   00001A                     ??_led_initialize:
  1109   00001A                     lcd_send_4bit@lcd:
  1110                           	callstack 0
  1111   00001A                     lcd_4bit_send_enable_signale@lcd:
  1112                           	callstack 0
  1113   00001A                     dc_motor_intialize@ret:
  1114                           	callstack 0
  1115   00001A                     dc_motor_move_right@_dc_motor:
  1116                           	callstack 0
  1117   00001A                     dc_motor_move_left@_dc_motor:
  1118                           	callstack 0
  1119   00001A                     dc_motor_stop@_dc_motor:
  1120                           	callstack 0
  1121   00001A                     keypad_get_value@_keypad_obj:
  1122                           	callstack 0
  1123   00001A                     led_turn_on@led:
  1124                           	callstack 0
  1125   00001A                     led_turn_off@led:
  1126                           	callstack 0
  1127   00001A                     gpio_pin_intialize@_pin_config:
  1128                           	callstack 0
  1129                           
  1130                           ; 1 bytes @ 0x19
  1131   00001A                     	ds	1
  1132   00001B                     ??_gpio_pin_intialize:
  1133   00001B                     ??_led_turn_on:
  1134   00001B                     ??_led_turn_off:
  1135   00001B                     lcd_send_4bit@command:
  1136                           	callstack 0
  1137   00001B                     lcd_4bit_send_enable_signale@ret:
  1138                           	callstack 0
  1139   00001B                     dc_motor_move_right@ret:
  1140                           	callstack 0
  1141   00001B                     dc_motor_move_left@ret:
  1142                           	callstack 0
  1143   00001B                     dc_motor_stop@ret:
  1144                           	callstack 0
  1145   00001B                     keypad_get_value@value:
  1146                           	callstack 0
  1147   00001B                     led_initialize@ret:
  1148                           	callstack 0
  1149                           
  1150                           ; 1 bytes @ 0x1A
  1151   00001B                     	ds	1
  1152   00001C                     ??_keypad_get_value:
  1153   00001C                     lcd_send_4bit@ret:
  1154                           	callstack 0
  1155   00001C                     led_initialize@pin_obj:
  1156                           	callstack 0
  1157   00001C                     led_turn_on@ret:
  1158                           	callstack 0
  1159   00001C                     led_turn_off@ret:
  1160                           	callstack 0
  1161   00001C                     gpio_pin_intialize@ret:
  1162                           	callstack 0
  1163   00001C                     vfpfcnvrt@fp:
  1164                           	callstack 0
  1165                           
  1166                           ; 2 bytes @ 0x1B
  1167   00001C                     	ds	1
  1168   00001D                     lcd_4_send_command@lcd:
  1169                           	callstack 0
  1170   00001D                     lcd_4_send_char_data@lcd:
  1171                           	callstack 0
  1172   00001D                     keypad_intialize@_keypad_obj:
  1173                           	callstack 0
  1174   00001D                     keypad_get_value@ret:
  1175                           	callstack 0
  1176   00001D                     led_turn_on@pin_obj:
  1177                           	callstack 0
  1178   00001D                     led_turn_off@pin_obj:
  1179                           	callstack 0
  1180                           
  1181                           ; 1 bytes @ 0x1C
  1182   00001D                     	ds	1
  1183   00001E                     lcd_4_send_command@command:
  1184                           	callstack 0
  1185   00001E                     lcd_4_send_char_data@data:
  1186                           	callstack 0
  1187   00001E                     keypad_intialize@ret:
  1188                           	callstack 0
  1189   00001E                     keypad_get_value@cloumn_logic:
  1190                           	callstack 0
  1191   00001E                     vfpfcnvrt@fmt:
  1192                           	callstack 0
  1193                           
  1194                           ; 1 bytes @ 0x1D
  1195   00001E                     	ds	1
  1196   00001F                     lcd_4_send_command@ret:
  1197                           	callstack 0
  1198   00001F                     lcd_4_send_char_data@ret:
  1199                           	callstack 0
  1200   00001F                     keypad_intialize@rows_counter:
  1201                           	callstack 0
  1202   00001F                     keypad_get_value@counter:
  1203                           	callstack 0
  1204   00001F                     vfpfcnvrt@ap:
  1205                           	callstack 0
  1206                           
  1207                           ; 2 bytes @ 0x1E
  1208   00001F                     	ds	1
  1209   000020                     lcd_4_intialize@lcd:
  1210                           	callstack 0
  1211   000020                     lcd_4bit_set_cursor@lcd:
  1212                           	callstack 0
  1213   000020                     keypad_intialize@columns_counter:
  1214                           	callstack 0
  1215   000020                     keypad_get_value@rows_counter:
  1216                           	callstack 0
  1217                           
  1218                           ; 1 bytes @ 0x1F
  1219   000020                     	ds	1
  1220   000021                     ??_lcd_4_intialize:
  1221   000021                     ??_vfpfcnvrt:
  1222   000021                     lcd_4bit_set_cursor@row:
  1223                           	callstack 0
  1224   000021                     keypad_get_value@columns_counter:
  1225                           	callstack 0
  1226                           
  1227                           ; 1 bytes @ 0x20
  1228   000021                     	ds	1
  1229   000022                     lcd_4_intialize@l_pins:
  1230                           	callstack 0
  1231   000022                     lcd_4bit_set_cursor@column:
  1232                           	callstack 0
  1233                           
  1234                           ; 1 bytes @ 0x21
  1235   000022                     	ds	1
  1236   000023                     ??_lcd_4bit_set_cursor:
  1237   000023                     lcd_4_intialize@ret:
  1238                           	callstack 0
  1239   000023                     vfpfcnvrt@done:
  1240                           	callstack 0
  1241                           
  1242                           ; 1 bytes @ 0x22
  1243   000023                     	ds	1
  1244   000024                     vfpfcnvrt@cp:
  1245                           	callstack 0
  1246                           
  1247                           ; 1 bytes @ 0x23
  1248   000024                     	ds	1
  1249   000025                     lcd_4bit_set_cursor@ret:
  1250                           	callstack 0
  1251   000025                     vfpfcnvrt@convarg:
  1252                           	callstack 0
  1253                           
  1254                           ; 4 bytes @ 0x24
  1255   000025                     	ds	1
  1256   000026                     lcd_4_send_string_position@lcd:
  1257                           	callstack 0
  1258                           
  1259                           ; 1 bytes @ 0x25
  1260   000026                     	ds	1
  1261   000027                     lcd_4_send_string_position@row:
  1262                           	callstack 0
  1263                           
  1264                           ; 1 bytes @ 0x26
  1265   000027                     	ds	1
  1266   000028                     lcd_4_send_string_position@column:
  1267                           	callstack 0
  1268                           
  1269                           ; 1 bytes @ 0x27
  1270   000028                     	ds	1
  1271   000029                     vfpfcnvrt@c:
  1272                           	callstack 0
  1273   000029                     lcd_4_send_string_position@str:
  1274                           	callstack 0
  1275                           
  1276                           ; 2 bytes @ 0x28
  1277   000029                     	ds	1
  1278   00002A                     ?_vfprintf:
  1279                           	callstack 0
  1280   00002A                     vfprintf@fp:
  1281                           	callstack 0
  1282                           
  1283                           ; 2 bytes @ 0x29
  1284   00002A                     	ds	1
  1285   00002B                     lcd_4_send_string_position@ret:
  1286                           	callstack 0
  1287                           
  1288                           ; 1 bytes @ 0x2A
  1289   00002B                     	ds	1
  1290   00002C                     vfprintf@fmt:
  1291                           	callstack 0
  1292                           
  1293                           ; 1 bytes @ 0x2B
  1294   00002C                     	ds	1
  1295   00002D                     vfprintf@ap:
  1296                           	callstack 0
  1297                           
  1298                           ; 2 bytes @ 0x2C
  1299   00002D                     	ds	2
  1300   00002F                     vfprintf@cfmt:
  1301                           	callstack 0
  1302                           
  1303                           ; 1 bytes @ 0x2E
  1304   00002F                     	ds	1
  1305   000030                     convert_byte_to_string@str:
  1306                           	callstack 0
  1307   000030                     convert_short_to_string@ret:
  1308                           	callstack 0
  1309                           
  1310                           ; 1 bytes @ 0x2F
  1311   000030                     	ds	1
  1312   000031                     
  1313                           ; 1 bytes @ 0x30
  1314 ;;
  1315 ;;Main: autosize = 0, tempsize = 2, incstack = 0, save=0
  1316 ;;
  1317 ;; *************** function _main *****************
  1318 ;; Defined at:
  1319 ;;		line 14 in file "application.c"
  1320 ;; Parameters:    Size  Location     Type
  1321 ;;		None
  1322 ;; Auto vars:     Size  Location     Type
  1323 ;;		None
  1324 ;; Return value:  Size  Location     Type
  1325 ;;                  2  1113[None  ] int 
  1326 ;; Registers used:
  1327 ;;		wreg, fsr0l, fsr0h, fsr1l, fsr1h, fsr2l, fsr2h, status,2, status,0, tblptrl, tblptrh, tblptru, prodl, prodh, cstack
  1328 ;; Tracked objects:
  1329 ;;		On entry : 0/0
  1330 ;;		On exit  : 0/0
  1331 ;;		Unchanged: 0/0
  1332 ;; Data sizes:     COMRAM   BANK0   BANK1   BANK2   BANK3   BANK4   BANK5   BANK6   BANK7   BANK8   BANK9  BANK10  BANK1
      +1  BANK12  BANK13  BANK14  BANK15
  1333 ;;      Params:         0       0       0       0       0       0       0       0       0       0       0       0       
      +0       0       0       0       0
  1334 ;;      Locals:         0       0       0       0       0       0       0       0       0       0       0       0       
      +0       0       0       0       0
  1335 ;;      Temps:          0       0       2       0       0       0       0       0       0       0       0       0       
      +0       0       0       0       0
  1336 ;;      Totals:         0       0       2       0       0       0       0       0       0       0       0       0       
      +0       0       0       0       0
  1337 ;;Total ram usage:        2 bytes
  1338 ;; Hardware stack levels required when called: 11
  1339 ;; This function calls:
  1340 ;;		___wmul
  1341 ;;		_convert_byte_to_string
  1342 ;;		_convert_short_to_string
  1343 ;;		_dc_motor_move_left
  1344 ;;		_dc_motor_move_right
  1345 ;;		_dc_motor_move_toggle
  1346 ;;		_dc_motor_stop
  1347 ;;		_ecu_layer_initialize
  1348 ;;		_keypad_get_value
  1349 ;;		_lcd_4_send_command
  1350 ;;		_lcd_4_send_string_position
  1351 ;;		_led_turn_off
  1352 ;;		_led_turn_on
  1353 ;;		_strcmp
  1354 ;; This function is called by:
  1355 ;;		Startup code after reset
  1356 ;; This function uses a non-reentrant model
  1357 ;;
  1358                           
  1359                           	psect	text0
  1360   0010C0                     __ptext0:
  1361                           	callstack 0
  1362   0010C0                     _main:
  1363                           	callstack 20
  1364   0010C0                     
  1365                           ;application.c: 16:     ecu_layer_initialize();
  1366   0010C0  ECC2  F018         	call	_ecu_layer_initialize	;wreg free
  1367                           
  1368                           ;application.c: 17:     ret = lcd_4_send_command(&lcd_1 , 0X01);
  1369   0010C4  0E62               	movlw	low _lcd_1
  1370   0010C6  6E1D               	movwf	lcd_4_send_command@lcd^0,c
  1371   0010C8  0E01               	movlw	1
  1372   0010CA  6E1E               	movwf	lcd_4_send_command@command^0,c
  1373   0010CC  ECD8  F016         	call	_lcd_4_send_command	;wreg free
  1374   0010D0  6E5D               	movwf	_ret^0,c
  1375   0010D2                     
  1376                           ;application.c: 18:     _delay((unsigned long)((100)*(8000000/4000.0)));
  1377   0010D2  0E02               	movlw	2
  1378   0010D4  0101               	movlb	1	; () banked
  1379   0010D6  6F33               	movwf	(??_main+1)& (0+255),b
  1380   0010D8  0E04               	movlw	4
  1381   0010DA  6F32               	movwf	??_main& (0+255),b
  1382   0010DC  0EBA               	movlw	186
  1383   0010DE                     u5977:
  1384   0010DE  2EE8               	decfsz	wreg,f,c
  1385   0010E0  D7FE               	bra	u5977
  1386   0010E2  2F32               	decfsz	??_main& (0+255),f,b
  1387   0010E4  D7FC               	bra	u5977
  1388   0010E6  2F33               	decfsz	(??_main+1)& (0+255),f,b
  1389   0010E8  D7FA               	bra	u5977
  1390   0010EA  0000               	nop	
  1391   0010EC                     
  1392                           ;application.c: 19:     ret = lcd_4_send_string_position(&lcd_1 , 1 , 2 , (uint8*)"Welco
      +                          me Youssef");
  1393   0010EC  0E62               	movlw	low _lcd_1
  1394   0010EE  6E26               	movwf	lcd_4_send_string_position@lcd^0,c
  1395   0010F0  0E01               	movlw	1
  1396   0010F2  6E27               	movwf	lcd_4_send_string_position@row^0,c
  1397   0010F4  0E02               	movlw	2
  1398   0010F6  6E28               	movwf	lcd_4_send_string_position@column^0,c
  1399   0010F8  0E33               	movlw	low STR_4
  1400   0010FA  6E29               	movwf	lcd_4_send_string_position@str^0,c
  1401   0010FC  5029               	movf	lcd_4_send_string_position@str^0,w,c
  1402   0010FE  A4D8               	btfss	status,2,c
  1403   001100  0E10               	movlw	high __smallconst
  1404   001102  6E2A               	movwf	(lcd_4_send_string_position@str+1)^0,c
  1405   001104  EC3F  F012         	call	_lcd_4_send_string_position	;wreg free
  1406   001108  6E5D               	movwf	_ret^0,c
  1407   00110A                     
  1408                           ;application.c: 20:     _delay((unsigned long)((1500)*(8000000/4000.0)));
  1409   00110A  0E10               	movlw	16
  1410   00110C  0101               	movlb	1	; () banked
  1411   00110E  6F33               	movwf	(??_main+1)& (0+255),b
  1412   001110  0E39               	movlw	57
  1413   001112  6F32               	movwf	??_main& (0+255),b
  1414   001114  0E0D               	movlw	13
  1415   001116                     u5987:
  1416   001116  2EE8               	decfsz	wreg,f,c
  1417   001118  D7FE               	bra	u5987
  1418   00111A  2F32               	decfsz	??_main& (0+255),f,b
  1419   00111C  D7FC               	bra	u5987
  1420   00111E  2F33               	decfsz	(??_main+1)& (0+255),f,b
  1421   001120  D7FA               	bra	u5987
  1422   001122  D000               	nop2	
  1423   001124                     
  1424                           ;application.c: 21:     ret = lcd_4_send_command(&lcd_1 , 0X01);
  1425   001124  0E62               	movlw	low _lcd_1
  1426   001126  6E1D               	movwf	lcd_4_send_command@lcd^0,c
  1427   001128  0E01               	movlw	1
  1428   00112A  6E1E               	movwf	lcd_4_send_command@command^0,c
  1429   00112C  ECD8  F016         	call	_lcd_4_send_command	;wreg free
  1430   001130  6E5D               	movwf	_ret^0,c
  1431   001132                     
  1432                           ;application.c: 22:     _delay((unsigned long)((100)*(8000000/4000.0)));
  1433   001132  0E02               	movlw	2
  1434   001134  0101               	movlb	1	; () banked
  1435   001136  6F33               	movwf	(??_main+1)& (0+255),b
  1436   001138  0E04               	movlw	4
  1437   00113A  6F32               	movwf	??_main& (0+255),b
  1438   00113C  0EBA               	movlw	186
  1439   00113E                     u5997:
  1440   00113E  2EE8               	decfsz	wreg,f,c
  1441   001140  D7FE               	bra	u5997
  1442   001142  2F32               	decfsz	??_main& (0+255),f,b
  1443   001144  D7FC               	bra	u5997
  1444   001146  2F33               	decfsz	(??_main+1)& (0+255),f,b
  1445   001148  D7FA               	bra	u5997
  1446   00114A  0000               	nop	
  1447   00114C  EF69  F00A         	goto	l6687
  1448   001150                     l6587:
  1449                           
  1450                           ;application.c: 28:             {;application.c: 29:                 ret = lcd_4_send_st
      +                          ring_position(&lcd_1 , 1 , 1 , (uint8*)"Write your pass");
  1451   001150  0E62               	movlw	low _lcd_1
  1452   001152  6E26               	movwf	lcd_4_send_string_position@lcd^0,c
  1453   001154  0E01               	movlw	1
  1454   001156  6E27               	movwf	lcd_4_send_string_position@row^0,c
  1455   001158  0E01               	movlw	1
  1456   00115A  6E28               	movwf	lcd_4_send_string_position@column^0,c
  1457   00115C  0E63               	movlw	low STR_5
  1458   00115E  6E29               	movwf	lcd_4_send_string_position@str^0,c
  1459   001160  5029               	movf	lcd_4_send_string_position@str^0,w,c
  1460   001162  A4D8               	btfss	status,2,c
  1461   001164  0E10               	movlw	high __smallconst
  1462   001166  6E2A               	movwf	(lcd_4_send_string_position@str+1)^0,c
  1463   001168  EC3F  F012         	call	_lcd_4_send_string_position	;wreg free
  1464   00116C  6E5D               	movwf	_ret^0,c
  1465   00116E                     
  1466                           ;application.c: 30:                 counter_pass = 4;
  1467   00116E  0E04               	movlw	4
  1468   001170  6E5C               	movwf	_counter_pass^0,c
  1469   001172                     
  1470                           ;application.c: 31:                 counter_value = 1;
  1471   001172  0E01               	movlw	1
  1472   001174  6E50               	movwf	_counter_value^0,c
  1473   001176                     
  1474                           ;application.c: 32:                 result = 0 ;
  1475   001176  0E00               	movlw	0
  1476   001178  6E36               	movwf	(_result+1)^0,c
  1477   00117A  0E00               	movlw	0
  1478   00117C  6E35               	movwf	_result^0,c
  1479                           
  1480                           ;application.c: 33:                 while(counter_pass)
  1481   00117E  EFF7  F008         	goto	l6609
  1482   001182                     l6595:
  1483                           
  1484                           ;application.c: 36:                     {;application.c: 37:                        ret 
      +                          = keypad_get_value(&KeyPad1 , &value);
  1485   001182  0EE3               	movlw	low _KeyPad1
  1486   001184  6E1A               	movwf	keypad_get_value@_keypad_obj^0,c
  1487   001186  0E59               	movlw	low _value
  1488   001188  6E1B               	movwf	keypad_get_value@value^0,c
  1489   00118A  EC95  F00F         	call	_keypad_get_value	;wreg free
  1490   00118E  6E5D               	movwf	_ret^0,c
  1491   001190                     l6597:
  1492                           
  1493                           ;application.c: 35:                     while(!value)
  1494   001190  5059               	movf	_value^0,w,c
  1495   001192  B4D8               	btfsc	status,2,c
  1496   001194  EFCE  F008         	goto	u5891
  1497   001198  EFD0  F008         	goto	u5890
  1498   00119C                     u5891:
  1499   00119C  EFC1  F008         	goto	l6595
  1500   0011A0                     u5890:
  1501   0011A0                     
  1502                           ;application.c: 39:                     result = (result*10)+(value-48);
  1503   0011A0  C035  F012         	movff	_result,___wmul@multiplier
  1504   0011A4  C036  F013         	movff	_result+1,___wmul@multiplier+1
  1505   0011A8  0E00               	movlw	0
  1506   0011AA  6E15               	movwf	(___wmul@multiplicand+1)^0,c
  1507   0011AC  0E0A               	movlw	10
  1508   0011AE  6E14               	movwf	___wmul@multiplicand^0,c
  1509   0011B0  ECD7  F018         	call	___wmul	;wreg free
  1510   0011B4  5059               	movf	_value^0,w,c
  1511   0011B6  2612               	addwf	?___wmul^0,f,c
  1512   0011B8  0E00               	movlw	0
  1513   0011BA  2213               	addwfc	(?___wmul+1)^0,f,c
  1514   0011BC  0ED0               	movlw	208
  1515   0011BE  2412               	addwf	?___wmul^0,w,c
  1516   0011C0  6E35               	movwf	_result^0,c
  1517   0011C2  0EFF               	movlw	255
  1518   0011C4  2013               	addwfc	(?___wmul+1)^0,w,c
  1519   0011C6  6E36               	movwf	(_result+1)^0,c
  1520   0011C8                     
  1521                           ;application.c: 40:                     ret = lcd_4_send_string_position(&lcd_1 , 2 , co
      +                          unter_value , (uint8*)"*");
  1522   0011C8  0E62               	movlw	low _lcd_1
  1523   0011CA  6E26               	movwf	lcd_4_send_string_position@lcd^0,c
  1524   0011CC  0E02               	movlw	2
  1525   0011CE  6E27               	movwf	lcd_4_send_string_position@row^0,c
  1526   0011D0  C050  F028         	movff	_counter_value,lcd_4_send_string_position@column
  1527   0011D4  0EBD               	movlw	low STR_6
  1528   0011D6  6E29               	movwf	lcd_4_send_string_position@str^0,c
  1529   0011D8  5029               	movf	lcd_4_send_string_position@str^0,w,c
  1530   0011DA  A4D8               	btfss	status,2,c
  1531   0011DC  0E10               	movlw	high __smallconst
  1532   0011DE  6E2A               	movwf	(lcd_4_send_string_position@str+1)^0,c
  1533   0011E0  EC3F  F012         	call	_lcd_4_send_string_position	;wreg free
  1534   0011E4  6E5D               	movwf	_ret^0,c
  1535   0011E6                     
  1536                           ;application.c: 41:                     value = (uint8)((void*)0) ;
  1537   0011E6  0E00               	movlw	0
  1538   0011E8  6E59               	movwf	_value^0,c
  1539   0011EA                     
  1540                           ;application.c: 42:                     counter_value++;
  1541   0011EA  2A50               	incf	_counter_value^0,f,c
  1542   0011EC                     
  1543                           ;application.c: 43:                     counter_pass--;
  1544   0011EC  065C               	decf	_counter_pass^0,f,c
  1545   0011EE                     l6609:
  1546                           
  1547                           ;application.c: 33:                 while(counter_pass)
  1548   0011EE  505C               	movf	_counter_pass^0,w,c
  1549   0011F0  A4D8               	btfss	status,2,c
  1550   0011F2  EFFD  F008         	goto	u5901
  1551   0011F6  EFFF  F008         	goto	u5900
  1552   0011FA                     u5901:
  1553   0011FA  EFC8  F008         	goto	l6597
  1554   0011FE                     u5900:
  1555   0011FE                     
  1556                           ;application.c: 45:                 _delay((unsigned long)((500)*(8000000/4000.0)));
  1557   0011FE  0E06               	movlw	6
  1558   001200  0101               	movlb	1	; () banked
  1559   001202  6F33               	movwf	(??_main+1)& (0+255),b
  1560   001204  0E13               	movlw	19
  1561   001206  6F32               	movwf	??_main& (0+255),b
  1562   001208  0EAD               	movlw	173
  1563   00120A                     u6007:
  1564   00120A  2EE8               	decfsz	wreg,f,c
  1565   00120C  D7FE               	bra	u6007
  1566   00120E  2F32               	decfsz	??_main& (0+255),f,b
  1567   001210  D7FC               	bra	u6007
  1568   001212  2F33               	decfsz	(??_main+1)& (0+255),f,b
  1569   001214  D7FA               	bra	u6007
  1570   001216  D000               	nop2	
  1571   001218                     
  1572                           ;application.c: 46:                 ret = convert_short_to_string(result , YourPass);
  1573   001218  C035  F0FD         	movff	_result,convert_short_to_string@value
  1574   00121C  C036  F0FE         	movff	_result+1,convert_short_to_string@value+1
  1575   001220  0EF1               	movlw	low _YourPass
  1576   001222  0100               	movlb	0	; () banked
  1577   001224  6FFF               	movwf	convert_short_to_string@str& (0+255),b
  1578   001226  EC30  F017         	call	_convert_short_to_string	;wreg free
  1579   00122A  6E5D               	movwf	_ret^0,c
  1580   00122C                     
  1581                           ;application.c: 47:                 flag = (uint8)strcmp((char*)YourPass , (char*)pass);
  1582   00122C  0EF1               	movlw	low _YourPass
  1583   00122E  6E12               	movwf	strcmp@l^0,c
  1584   001230  0EEB               	movlw	low _pass
  1585   001232  6E13               	movwf	strcmp@r^0,c
  1586   001234  EC7B  F016         	call	_strcmp	;wreg free
  1587   001238  5012               	movf	?_strcmp^0,w,c
  1588   00123A  6E5B               	movwf	_flag^0,c
  1589   00123C                     
  1590                           ;application.c: 48:                 if(flag == 0)
  1591   00123C  505B               	movf	_flag^0,w,c
  1592   00123E  A4D8               	btfss	status,2,c
  1593   001240  EF24  F009         	goto	u5911
  1594   001244  EF26  F009         	goto	u5910
  1595   001248                     u5911:
  1596   001248  EF5D  F009         	goto	l6631
  1597   00124C                     u5910:
  1598   00124C                     
  1599                           ;application.c: 49:                 {;application.c: 50:                     ret = lcd_4
      +                          _send_command(&lcd_1 , 0X01);
  1600   00124C  0E62               	movlw	low _lcd_1
  1601   00124E  6E1D               	movwf	lcd_4_send_command@lcd^0,c
  1602   001250  0E01               	movlw	1
  1603   001252  6E1E               	movwf	lcd_4_send_command@command^0,c
  1604   001254  ECD8  F016         	call	_lcd_4_send_command	;wreg free
  1605   001258  6E5D               	movwf	_ret^0,c
  1606   00125A                     
  1607                           ;application.c: 51:                     _delay((unsigned long)((100)*(8000000/4000.0)));
  1608   00125A  0E02               	movlw	2
  1609   00125C  0101               	movlb	1	; () banked
  1610   00125E  6F33               	movwf	(??_main+1)& (0+255),b
  1611   001260  0E04               	movlw	4
  1612   001262  6F32               	movwf	??_main& (0+255),b
  1613   001264  0EBA               	movlw	186
  1614   001266                     u6017:
  1615   001266  2EE8               	decfsz	wreg,f,c
  1616   001268  D7FE               	bra	u6017
  1617   00126A  2F32               	decfsz	??_main& (0+255),f,b
  1618   00126C  D7FC               	bra	u6017
  1619   00126E  2F33               	decfsz	(??_main+1)& (0+255),f,b
  1620   001270  D7FA               	bra	u6017
  1621   001272  0000               	nop	
  1622   001274                     
  1623                           ;application.c: 52:                     ret = lcd_4_send_string_position(&lcd_1 , 1 , 1 
      +                          , (uint8*)"Correct Pass");
  1624   001274  0E62               	movlw	low _lcd_1
  1625   001276  6E26               	movwf	lcd_4_send_string_position@lcd^0,c
  1626   001278  0E01               	movlw	1
  1627   00127A  6E27               	movwf	lcd_4_send_string_position@row^0,c
  1628   00127C  0E01               	movlw	1
  1629   00127E  6E28               	movwf	lcd_4_send_string_position@column^0,c
  1630   001280  0E8F               	movlw	low STR_7
  1631   001282  6E29               	movwf	lcd_4_send_string_position@str^0,c
  1632   001284  5029               	movf	lcd_4_send_string_position@str^0,w,c
  1633   001286  A4D8               	btfss	status,2,c
  1634   001288  0E10               	movlw	high __smallconst
  1635   00128A  6E2A               	movwf	(lcd_4_send_string_position@str+1)^0,c
  1636   00128C  EC3F  F012         	call	_lcd_4_send_string_position	;wreg free
  1637   001290  6E5D               	movwf	_ret^0,c
  1638   001292                     
  1639                           ;application.c: 53:                     ret = led_turn_on(&led_green);
  1640   001292  0E6C               	movlw	low _led_green
  1641   001294  6E1A               	movwf	led_turn_on@led^0,c
  1642   001296  EC54  F014         	call	_led_turn_on	;wreg free
  1643   00129A  6E5D               	movwf	_ret^0,c
  1644   00129C                     
  1645                           ;application.c: 54:                     _delay((unsigned long)((2000)*(8000000/4000.0)))
      +                          ;
  1646   00129C  0E15               	movlw	21
  1647   00129E  0101               	movlb	1	; () banked
  1648   0012A0  6F33               	movwf	(??_main+1)& (0+255),b
  1649   0012A2  0E4B               	movlw	75
  1650   0012A4  6F32               	movwf	??_main& (0+255),b
  1651   0012A6  0EBE               	movlw	190
  1652   0012A8                     u6027:
  1653   0012A8  2EE8               	decfsz	wreg,f,c
  1654   0012AA  D7FE               	bra	u6027
  1655   0012AC  2F32               	decfsz	??_main& (0+255),f,b
  1656   0012AE  D7FC               	bra	u6027
  1657   0012B0  2F33               	decfsz	(??_main+1)& (0+255),f,b
  1658   0012B2  D7FA               	bra	u6027
  1659   0012B4  0000               	nop	
  1660                           
  1661                           ;application.c: 55:                     break;
  1662   0012B6  EF00  F00A         	goto	l6665
  1663   0012BA                     l6631:
  1664                           
  1665                           ;application.c: 58:                 {;application.c: 59:                     forsa--;
  1666   0012BA  065A               	decf	_forsa^0,f,c
  1667   0012BC                     
  1668                           ;application.c: 60:                     if(forsa == 0)
  1669   0012BC  505A               	movf	_forsa^0,w,c
  1670   0012BE  A4D8               	btfss	status,2,c
  1671   0012C0  EF64  F009         	goto	u5921
  1672   0012C4  EF66  F009         	goto	u5920
  1673   0012C8                     u5921:
  1674   0012C8  EF68  F009         	goto	l6637
  1675   0012CC                     u5920:
  1676   0012CC  EFF8  F009         	goto	l6663
  1677   0012D0                     l6637:
  1678                           
  1679                           ;application.c: 65:                     {;application.c: 66:                         ret
      +                           = led_turn_on(&led_red);
  1680   0012D0  0E6D               	movlw	low _led_red
  1681   0012D2  6E1A               	movwf	led_turn_on@led^0,c
  1682   0012D4  EC54  F014         	call	_led_turn_on	;wreg free
  1683   0012D8  6E5D               	movwf	_ret^0,c
  1684                           
  1685                           ;application.c: 67:                         ret = lcd_4_send_command(&lcd_1 , 0X01);
  1686   0012DA  0E62               	movlw	low _lcd_1
  1687   0012DC  6E1D               	movwf	lcd_4_send_command@lcd^0,c
  1688   0012DE  0E01               	movlw	1
  1689   0012E0  6E1E               	movwf	lcd_4_send_command@command^0,c
  1690   0012E2  ECD8  F016         	call	_lcd_4_send_command	;wreg free
  1691   0012E6  6E5D               	movwf	_ret^0,c
  1692   0012E8                     
  1693                           ;application.c: 68:                         _delay((unsigned long)((100)*(8000000/4000.0
      +                          )));
  1694   0012E8  0E02               	movlw	2
  1695   0012EA  0101               	movlb	1	; () banked
  1696   0012EC  6F33               	movwf	(??_main+1)& (0+255),b
  1697   0012EE  0E04               	movlw	4
  1698   0012F0  6F32               	movwf	??_main& (0+255),b
  1699   0012F2  0EBA               	movlw	186
  1700   0012F4                     u6037:
  1701   0012F4  2EE8               	decfsz	wreg,f,c
  1702   0012F6  D7FE               	bra	u6037
  1703   0012F8  2F32               	decfsz	??_main& (0+255),f,b
  1704   0012FA  D7FC               	bra	u6037
  1705   0012FC  2F33               	decfsz	(??_main+1)& (0+255),f,b
  1706   0012FE  D7FA               	bra	u6037
  1707   001300  0000               	nop	
  1708   001302                     
  1709                           ;application.c: 69:                         ret = lcd_4_send_string_position(&lcd_1 , 1 
      +                          , 1 , (uint8*)"Wrong Pass");
  1710   001302  0E62               	movlw	low _lcd_1
  1711   001304  6E26               	movwf	lcd_4_send_string_position@lcd^0,c
  1712   001306  0E01               	movlw	1
  1713   001308  6E27               	movwf	lcd_4_send_string_position@row^0,c
  1714   00130A  0E01               	movlw	1
  1715   00130C  6E28               	movwf	lcd_4_send_string_position@column^0,c
  1716   00130E  0EA8               	movlw	low STR_8
  1717   001310  6E29               	movwf	lcd_4_send_string_position@str^0,c
  1718   001312  5029               	movf	lcd_4_send_string_position@str^0,w,c
  1719   001314  A4D8               	btfss	status,2,c
  1720   001316  0E10               	movlw	high __smallconst
  1721   001318  6E2A               	movwf	(lcd_4_send_string_position@str+1)^0,c
  1722   00131A  EC3F  F012         	call	_lcd_4_send_string_position	;wreg free
  1723   00131E  6E5D               	movwf	_ret^0,c
  1724   001320                     
  1725                           ;application.c: 70:                         _delay((unsigned long)((2000)*(8000000/4000.
      +                          0)));
  1726   001320  0E15               	movlw	21
  1727   001322  0101               	movlb	1	; () banked
  1728   001324  6F33               	movwf	(??_main+1)& (0+255),b
  1729   001326  0E4B               	movlw	75
  1730   001328  6F32               	movwf	??_main& (0+255),b
  1731   00132A  0EBE               	movlw	190
  1732   00132C                     u6047:
  1733   00132C  2EE8               	decfsz	wreg,f,c
  1734   00132E  D7FE               	bra	u6047
  1735   001330  2F32               	decfsz	??_main& (0+255),f,b
  1736   001332  D7FC               	bra	u6047
  1737   001334  2F33               	decfsz	(??_main+1)& (0+255),f,b
  1738   001336  D7FA               	bra	u6047
  1739   001338  0000               	nop	
  1740   00133A                     
  1741                           ;application.c: 71:                         ret = lcd_4_send_command(&lcd_1 , 0X01);
  1742   00133A  0E62               	movlw	low _lcd_1
  1743   00133C  6E1D               	movwf	lcd_4_send_command@lcd^0,c
  1744   00133E  0E01               	movlw	1
  1745   001340  6E1E               	movwf	lcd_4_send_command@command^0,c
  1746   001342  ECD8  F016         	call	_lcd_4_send_command	;wreg free
  1747   001346  6E5D               	movwf	_ret^0,c
  1748   001348                     
  1749                           ;application.c: 72:                         _delay((unsigned long)((100)*(8000000/4000.0
      +                          )));
  1750   001348  0E02               	movlw	2
  1751   00134A  0101               	movlb	1	; () banked
  1752   00134C  6F33               	movwf	(??_main+1)& (0+255),b
  1753   00134E  0E04               	movlw	4
  1754   001350  6F32               	movwf	??_main& (0+255),b
  1755   001352  0EBA               	movlw	186
  1756   001354                     u6057:
  1757   001354  2EE8               	decfsz	wreg,f,c
  1758   001356  D7FE               	bra	u6057
  1759   001358  2F32               	decfsz	??_main& (0+255),f,b
  1760   00135A  D7FC               	bra	u6057
  1761   00135C  2F33               	decfsz	(??_main+1)& (0+255),f,b
  1762   00135E  D7FA               	bra	u6057
  1763   001360  0000               	nop	
  1764   001362                     
  1765                           ;application.c: 73:                         ret = lcd_4_send_string_position(&lcd_1 , 1 
      +                          , 1 , (uint8*)"you have   tries");
  1766   001362  0E62               	movlw	low _lcd_1
  1767   001364  6E26               	movwf	lcd_4_send_string_position@lcd^0,c
  1768   001366  0E01               	movlw	1
  1769   001368  6E27               	movwf	lcd_4_send_string_position@row^0,c
  1770   00136A  0E01               	movlw	1
  1771   00136C  6E28               	movwf	lcd_4_send_string_position@column^0,c
  1772   00136E  0E22               	movlw	low STR_9
  1773   001370  6E29               	movwf	lcd_4_send_string_position@str^0,c
  1774   001372  5029               	movf	lcd_4_send_string_position@str^0,w,c
  1775   001374  A4D8               	btfss	status,2,c
  1776   001376  0E10               	movlw	high __smallconst
  1777   001378  6E2A               	movwf	(lcd_4_send_string_position@str+1)^0,c
  1778   00137A  EC3F  F012         	call	_lcd_4_send_string_position	;wreg free
  1779   00137E  6E5D               	movwf	_ret^0,c
  1780   001380                     
  1781                           ;application.c: 74:                         ret = convert_byte_to_string(forsa , result_
      +                          txt);
  1782   001380  0EF7               	movlw	low _result_txt
  1783   001382  6E30               	movwf	convert_byte_to_string@str^0,c
  1784   001384  505A               	movf	_forsa^0,w,c
  1785   001386  EC06  F017         	call	_convert_byte_to_string
  1786   00138A  6E5D               	movwf	_ret^0,c
  1787   00138C                     
  1788                           ;application.c: 75:                         ret = lcd_4_send_string_position(&lcd_1 , 1 
      +                          , 10 , result_txt);
  1789   00138C  0E62               	movlw	low _lcd_1
  1790   00138E  6E26               	movwf	lcd_4_send_string_position@lcd^0,c
  1791   001390  0E01               	movlw	1
  1792   001392  6E27               	movwf	lcd_4_send_string_position@row^0,c
  1793   001394  0E0A               	movlw	10
  1794   001396  6E28               	movwf	lcd_4_send_string_position@column^0,c
  1795   001398  0EF7               	movlw	low _result_txt
  1796   00139A  6E29               	movwf	lcd_4_send_string_position@str^0,c
  1797   00139C  6A2A               	clrf	(lcd_4_send_string_position@str+1)^0,c
  1798   00139E  EC3F  F012         	call	_lcd_4_send_string_position	;wreg free
  1799   0013A2  6E5D               	movwf	_ret^0,c
  1800   0013A4                     
  1801                           ;application.c: 76:                         _delay((unsigned long)((2000)*(8000000/4000.
      +                          0)));
  1802   0013A4  0E15               	movlw	21
  1803   0013A6  0101               	movlb	1	; () banked
  1804   0013A8  6F33               	movwf	(??_main+1)& (0+255),b
  1805   0013AA  0E4B               	movlw	75
  1806   0013AC  6F32               	movwf	??_main& (0+255),b
  1807   0013AE  0EBE               	movlw	190
  1808   0013B0                     u6067:
  1809   0013B0  2EE8               	decfsz	wreg,f,c
  1810   0013B2  D7FE               	bra	u6067
  1811   0013B4  2F32               	decfsz	??_main& (0+255),f,b
  1812   0013B6  D7FC               	bra	u6067
  1813   0013B8  2F33               	decfsz	(??_main+1)& (0+255),f,b
  1814   0013BA  D7FA               	bra	u6067
  1815   0013BC  0000               	nop	
  1816   0013BE                     
  1817                           ;application.c: 77:                         ret = led_turn_off(&led_red);
  1818   0013BE  0E6D               	movlw	low _led_red
  1819   0013C0  6E1A               	movwf	led_turn_off@led^0,c
  1820   0013C2  EC8E  F014         	call	_led_turn_off	;wreg free
  1821   0013C6  6E5D               	movwf	_ret^0,c
  1822   0013C8                     
  1823                           ;application.c: 78:                         ret = lcd_4_send_command(&lcd_1 , 0X01);
  1824   0013C8  0E62               	movlw	low _lcd_1
  1825   0013CA  6E1D               	movwf	lcd_4_send_command@lcd^0,c
  1826   0013CC  0E01               	movlw	1
  1827   0013CE  6E1E               	movwf	lcd_4_send_command@command^0,c
  1828   0013D0  ECD8  F016         	call	_lcd_4_send_command	;wreg free
  1829   0013D4  6E5D               	movwf	_ret^0,c
  1830   0013D6                     
  1831                           ;application.c: 79:                         _delay((unsigned long)((100)*(8000000/4000.0
      +                          )));
  1832   0013D6  0E02               	movlw	2
  1833   0013D8  0101               	movlb	1	; () banked
  1834   0013DA  6F33               	movwf	(??_main+1)& (0+255),b
  1835   0013DC  0E04               	movlw	4
  1836   0013DE  6F32               	movwf	??_main& (0+255),b
  1837   0013E0  0EBA               	movlw	186
  1838   0013E2                     u6077:
  1839   0013E2  2EE8               	decfsz	wreg,f,c
  1840   0013E4  D7FE               	bra	u6077
  1841   0013E6  2F32               	decfsz	??_main& (0+255),f,b
  1842   0013E8  D7FC               	bra	u6077
  1843   0013EA  2F33               	decfsz	(??_main+1)& (0+255),f,b
  1844   0013EC  D7FA               	bra	u6077
  1845   0013EE  0000               	nop	
  1846   0013F0                     l6663:
  1847                           
  1848                           ;application.c: 27:             while(forsa)
  1849   0013F0  505A               	movf	_forsa^0,w,c
  1850   0013F2  A4D8               	btfss	status,2,c
  1851   0013F4  EFFE  F009         	goto	u5931
  1852   0013F8  EF00  F00A         	goto	u5930
  1853   0013FC                     u5931:
  1854   0013FC  EFA8  F008         	goto	l6587
  1855   001400                     u5930:
  1856   001400                     l6665:
  1857                           
  1858                           ;application.c: 83:             if(forsa)
  1859   001400  505A               	movf	_forsa^0,w,c
  1860   001402  B4D8               	btfsc	status,2,c
  1861   001404  EF06  F00A         	goto	u5941
  1862   001408  EF08  F00A         	goto	u5940
  1863   00140C                     u5941:
  1864   00140C  EF0A  F00A         	goto	l6669
  1865   001410                     u5940:
  1866   001410  EF69  F00A         	goto	l6687
  1867   001414                     l6669:
  1868                           
  1869                           ;application.c: 86:             {;application.c: 87:                 ret = led_turn_on(&
      +                          led_red);
  1870   001414  0E6D               	movlw	low _led_red
  1871   001416  6E1A               	movwf	led_turn_on@led^0,c
  1872   001418  EC54  F014         	call	_led_turn_on	;wreg free
  1873   00141C  6E5D               	movwf	_ret^0,c
  1874                           
  1875                           ;application.c: 88:                 ret = lcd_4_send_command(&lcd_1 , 0X01);
  1876   00141E  0E62               	movlw	low _lcd_1
  1877   001420  6E1D               	movwf	lcd_4_send_command@lcd^0,c
  1878   001422  0E01               	movlw	1
  1879   001424  6E1E               	movwf	lcd_4_send_command@command^0,c
  1880   001426  ECD8  F016         	call	_lcd_4_send_command	;wreg free
  1881   00142A  6E5D               	movwf	_ret^0,c
  1882   00142C                     
  1883                           ;application.c: 89:                 _delay((unsigned long)((100)*(8000000/4000.0)));
  1884   00142C  0E02               	movlw	2
  1885   00142E  0101               	movlb	1	; () banked
  1886   001430  6F33               	movwf	(??_main+1)& (0+255),b
  1887   001432  0E04               	movlw	4
  1888   001434  6F32               	movwf	??_main& (0+255),b
  1889   001436  0EBA               	movlw	186
  1890   001438                     u6087:
  1891   001438  2EE8               	decfsz	wreg,f,c
  1892   00143A  D7FE               	bra	u6087
  1893   00143C  2F32               	decfsz	??_main& (0+255),f,b
  1894   00143E  D7FC               	bra	u6087
  1895   001440  2F33               	decfsz	(??_main+1)& (0+255),f,b
  1896   001442  D7FA               	bra	u6087
  1897   001444  0000               	nop	
  1898   001446                     
  1899                           ;application.c: 90:                 ret = lcd_4_send_string_position(&lcd_1 , 1 , 1 , (u
      +                          int8*)"you use 3 tries");
  1900   001446  0E62               	movlw	low _lcd_1
  1901   001448  6E26               	movwf	lcd_4_send_string_position@lcd^0,c
  1902   00144A  0E01               	movlw	1
  1903   00144C  6E27               	movwf	lcd_4_send_string_position@row^0,c
  1904   00144E  0E01               	movlw	1
  1905   001450  6E28               	movwf	lcd_4_send_string_position@column^0,c
  1906   001452  0E53               	movlw	low STR_10
  1907   001454  6E29               	movwf	lcd_4_send_string_position@str^0,c
  1908   001456  5029               	movf	lcd_4_send_string_position@str^0,w,c
  1909   001458  A4D8               	btfss	status,2,c
  1910   00145A  0E10               	movlw	high __smallconst
  1911   00145C  6E2A               	movwf	(lcd_4_send_string_position@str+1)^0,c
  1912   00145E  EC3F  F012         	call	_lcd_4_send_string_position	;wreg free
  1913   001462  6E5D               	movwf	_ret^0,c
  1914   001464                     
  1915                           ;application.c: 91:                 ret = lcd_4_send_string_position(&lcd_1 , 2 , 1 , (u
      +                          int8*)"you are in block");
  1916   001464  0E62               	movlw	low _lcd_1
  1917   001466  6E26               	movwf	lcd_4_send_string_position@lcd^0,c
  1918   001468  0E02               	movlw	2
  1919   00146A  6E27               	movwf	lcd_4_send_string_position@row^0,c
  1920   00146C  0E01               	movlw	1
  1921   00146E  6E28               	movwf	lcd_4_send_string_position@column^0,c
  1922   001470  0E11               	movlw	low STR_11
  1923   001472  6E29               	movwf	lcd_4_send_string_position@str^0,c
  1924   001474  5029               	movf	lcd_4_send_string_position@str^0,w,c
  1925   001476  A4D8               	btfss	status,2,c
  1926   001478  0E10               	movlw	high __smallconst
  1927   00147A  6E2A               	movwf	(lcd_4_send_string_position@str+1)^0,c
  1928   00147C  EC3F  F012         	call	_lcd_4_send_string_position	;wreg free
  1929   001480  6E5D               	movwf	_ret^0,c
  1930   001482                     
  1931                           ;application.c: 92:                 _delay((unsigned long)((5000)*(8000000/4000.0)));
  1932   001482  0E33               	movlw	51
  1933   001484  0101               	movlb	1	; () banked
  1934   001486  6F33               	movwf	(??_main+1)& (0+255),b
  1935   001488  0EBB               	movlw	187
  1936   00148A  6F32               	movwf	??_main& (0+255),b
  1937   00148C  0EDF               	movlw	223
  1938   00148E                     u6097:
  1939   00148E  2EE8               	decfsz	wreg,f,c
  1940   001490  D7FE               	bra	u6097
  1941   001492  2F32               	decfsz	??_main& (0+255),f,b
  1942   001494  D7FC               	bra	u6097
  1943   001496  2F33               	decfsz	(??_main+1)& (0+255),f,b
  1944   001498  D7FA               	bra	u6097
  1945   00149A  D000               	nop2	
  1946   00149C                     
  1947                           ;application.c: 93:                 forsa = 3;
  1948   00149C  0E03               	movlw	3
  1949   00149E  6E5A               	movwf	_forsa^0,c
  1950   0014A0                     
  1951                           ;application.c: 94:                 ret = lcd_4_send_command(&lcd_1 , 0X01);
  1952   0014A0  0E62               	movlw	low _lcd_1
  1953   0014A2  6E1D               	movwf	lcd_4_send_command@lcd^0,c
  1954   0014A4  0E01               	movlw	1
  1955   0014A6  6E1E               	movwf	lcd_4_send_command@command^0,c
  1956   0014A8  ECD8  F016         	call	_lcd_4_send_command	;wreg free
  1957   0014AC  6E5D               	movwf	_ret^0,c
  1958   0014AE                     
  1959                           ;application.c: 95:                 _delay((unsigned long)((100)*(8000000/4000.0)));
  1960   0014AE  0E02               	movlw	2
  1961   0014B0  0101               	movlb	1	; () banked
  1962   0014B2  6F33               	movwf	(??_main+1)& (0+255),b
  1963   0014B4  0E04               	movlw	4
  1964   0014B6  6F32               	movwf	??_main& (0+255),b
  1965   0014B8  0EBA               	movlw	186
  1966   0014BA                     u6107:
  1967   0014BA  2EE8               	decfsz	wreg,f,c
  1968   0014BC  D7FE               	bra	u6107
  1969   0014BE  2F32               	decfsz	??_main& (0+255),f,b
  1970   0014C0  D7FC               	bra	u6107
  1971   0014C2  2F33               	decfsz	(??_main+1)& (0+255),f,b
  1972   0014C4  D7FA               	bra	u6107
  1973   0014C6  0000               	nop	
  1974   0014C8                     
  1975                           ;application.c: 96:                 ret = led_turn_off(&led_red);
  1976   0014C8  0E6D               	movlw	low _led_red
  1977   0014CA  6E1A               	movwf	led_turn_off@led^0,c
  1978   0014CC  EC8E  F014         	call	_led_turn_off	;wreg free
  1979   0014D0  6E5D               	movwf	_ret^0,c
  1980   0014D2                     l6687:
  1981                           
  1982                           ;application.c: 25:         while(flag)
  1983   0014D2  505B               	movf	_flag^0,w,c
  1984   0014D4  A4D8               	btfss	status,2,c
  1985   0014D6  EF6F  F00A         	goto	u5951
  1986   0014DA  EF71  F00A         	goto	u5950
  1987   0014DE                     u5951:
  1988   0014DE  EFF8  F009         	goto	l6663
  1989   0014E2                     u5950:
  1990   0014E2                     
  1991                           ;application.c: 99:         ret = lcd_4_send_command(&lcd_1 , 0X01);
  1992   0014E2  0E62               	movlw	low _lcd_1
  1993   0014E4  6E1D               	movwf	lcd_4_send_command@lcd^0,c
  1994   0014E6  0E01               	movlw	1
  1995   0014E8  6E1E               	movwf	lcd_4_send_command@command^0,c
  1996   0014EA  ECD8  F016         	call	_lcd_4_send_command	;wreg free
  1997   0014EE  6E5D               	movwf	_ret^0,c
  1998   0014F0                     
  1999                           ;application.c: 100:         _delay((unsigned long)((100)*(8000000/4000.0)));
  2000   0014F0  0E02               	movlw	2
  2001   0014F2  0101               	movlb	1	; () banked
  2002   0014F4  6F33               	movwf	(??_main+1)& (0+255),b
  2003   0014F6  0E04               	movlw	4
  2004   0014F8  6F32               	movwf	??_main& (0+255),b
  2005   0014FA  0EBA               	movlw	186
  2006   0014FC                     u6117:
  2007   0014FC  2EE8               	decfsz	wreg,f,c
  2008   0014FE  D7FE               	bra	u6117
  2009   001500  2F32               	decfsz	??_main& (0+255),f,b
  2010   001502  D7FC               	bra	u6117
  2011   001504  2F33               	decfsz	(??_main+1)& (0+255),f,b
  2012   001506  D7FA               	bra	u6117
  2013   001508  0000               	nop	
  2014   00150A                     
  2015                           ;application.c: 101:         ret = lcd_4_send_string_position(&lcd_1 , 1 , 1 , (uint8*)"
      +                          you can use ");
  2016   00150A  0E62               	movlw	low _lcd_1
  2017   00150C  6E26               	movwf	lcd_4_send_string_position@lcd^0,c
  2018   00150E  0E01               	movlw	1
  2019   001510  6E27               	movwf	lcd_4_send_string_position@row^0,c
  2020   001512  0E01               	movlw	1
  2021   001514  6E28               	movwf	lcd_4_send_string_position@column^0,c
  2022   001516  0E82               	movlw	low STR_12
  2023   001518  6E29               	movwf	lcd_4_send_string_position@str^0,c
  2024   00151A  5029               	movf	lcd_4_send_string_position@str^0,w,c
  2025   00151C  A4D8               	btfss	status,2,c
  2026   00151E  0E10               	movlw	high __smallconst
  2027   001520  6E2A               	movwf	(lcd_4_send_string_position@str+1)^0,c
  2028   001522  EC3F  F012         	call	_lcd_4_send_string_position	;wreg free
  2029   001526  6E5D               	movwf	_ret^0,c
  2030   001528                     
  2031                           ;application.c: 102:         ret = lcd_4_send_string_position(&lcd_1 , 2 , 1 , (uint8*)"
      +                          motor ");
  2032   001528  0E62               	movlw	low _lcd_1
  2033   00152A  6E26               	movwf	lcd_4_send_string_position@lcd^0,c
  2034   00152C  0E02               	movlw	2
  2035   00152E  6E27               	movwf	lcd_4_send_string_position@row^0,c
  2036   001530  0E01               	movlw	1
  2037   001532  6E28               	movwf	lcd_4_send_string_position@column^0,c
  2038   001534  0EB3               	movlw	low STR_13
  2039   001536  6E29               	movwf	lcd_4_send_string_position@str^0,c
  2040   001538  5029               	movf	lcd_4_send_string_position@str^0,w,c
  2041   00153A  A4D8               	btfss	status,2,c
  2042   00153C  0E10               	movlw	high __smallconst
  2043   00153E  6E2A               	movwf	(lcd_4_send_string_position@str+1)^0,c
  2044   001540  EC3F  F012         	call	_lcd_4_send_string_position	;wreg free
  2045   001544  6E5D               	movwf	_ret^0,c
  2046   001546                     
  2047                           ;application.c: 103:         _delay((unsigned long)((2000)*(8000000/4000.0)));
  2048   001546  0E15               	movlw	21
  2049   001548  0101               	movlb	1	; () banked
  2050   00154A  6F33               	movwf	(??_main+1)& (0+255),b
  2051   00154C  0E4B               	movlw	75
  2052   00154E  6F32               	movwf	??_main& (0+255),b
  2053   001550  0EBE               	movlw	190
  2054   001552                     u6127:
  2055   001552  2EE8               	decfsz	wreg,f,c
  2056   001554  D7FE               	bra	u6127
  2057   001556  2F32               	decfsz	??_main& (0+255),f,b
  2058   001558  D7FC               	bra	u6127
  2059   00155A  2F33               	decfsz	(??_main+1)& (0+255),f,b
  2060   00155C  D7FA               	bra	u6127
  2061   00155E  0000               	nop	
  2062   001560                     l6699:
  2063                           
  2064                           ;application.c: 105:         {;application.c: 106:             value = (uint8)((void*)0)
      +                           ;
  2065   001560  0E00               	movlw	0
  2066   001562  6E59               	movwf	_value^0,c
  2067   001564                     
  2068                           ;application.c: 107:             ret = lcd_4_send_command(&lcd_1 , 0X01);
  2069   001564  0E62               	movlw	low _lcd_1
  2070   001566  6E1D               	movwf	lcd_4_send_command@lcd^0,c
  2071   001568  0E01               	movlw	1
  2072   00156A  6E1E               	movwf	lcd_4_send_command@command^0,c
  2073   00156C  ECD8  F016         	call	_lcd_4_send_command	;wreg free
  2074   001570  6E5D               	movwf	_ret^0,c
  2075   001572                     
  2076                           ;application.c: 108:             _delay((unsigned long)((100)*(8000000/4000.0)));
  2077   001572  0E02               	movlw	2
  2078   001574  0101               	movlb	1	; () banked
  2079   001576  6F33               	movwf	(??_main+1)& (0+255),b
  2080   001578  0E04               	movlw	4
  2081   00157A  6F32               	movwf	??_main& (0+255),b
  2082   00157C  0EBA               	movlw	186
  2083   00157E                     u6137:
  2084   00157E  2EE8               	decfsz	wreg,f,c
  2085   001580  D7FE               	bra	u6137
  2086   001582  2F32               	decfsz	??_main& (0+255),f,b
  2087   001584  D7FC               	bra	u6137
  2088   001586  2F33               	decfsz	(??_main+1)& (0+255),f,b
  2089   001588  D7FA               	bra	u6137
  2090   00158A  0000               	nop	
  2091   00158C                     
  2092                           ;application.c: 109:             ret = lcd_4_send_string_position(&lcd_1 , 1 , 1 , (uint
      +                          8*)"1-right 2-left");
  2093   00158C  0E62               	movlw	low _lcd_1
  2094   00158E  6E26               	movwf	lcd_4_send_string_position@lcd^0,c
  2095   001590  0E01               	movlw	1
  2096   001592  6E27               	movwf	lcd_4_send_string_position@row^0,c
  2097   001594  0E01               	movlw	1
  2098   001596  6E28               	movwf	lcd_4_send_string_position@column^0,c
  2099   001598  0E73               	movlw	low STR_14
  2100   00159A  6E29               	movwf	lcd_4_send_string_position@str^0,c
  2101   00159C  5029               	movf	lcd_4_send_string_position@str^0,w,c
  2102   00159E  A4D8               	btfss	status,2,c
  2103   0015A0  0E10               	movlw	high __smallconst
  2104   0015A2  6E2A               	movwf	(lcd_4_send_string_position@str+1)^0,c
  2105   0015A4  EC3F  F012         	call	_lcd_4_send_string_position	;wreg free
  2106   0015A8  6E5D               	movwf	_ret^0,c
  2107   0015AA                     
  2108                           ;application.c: 110:             ret = lcd_4_send_string_position(&lcd_1 , 2 , 1 , (uint
      +                          8*)"3-toggle 4-stop");
  2109   0015AA  0E62               	movlw	low _lcd_1
  2110   0015AC  6E26               	movwf	lcd_4_send_string_position@lcd^0,c
  2111   0015AE  0E02               	movlw	2
  2112   0015B0  6E27               	movwf	lcd_4_send_string_position@row^0,c
  2113   0015B2  0E01               	movlw	1
  2114   0015B4  6E28               	movwf	lcd_4_send_string_position@column^0,c
  2115   0015B6  0E43               	movlw	low STR_15
  2116   0015B8  6E29               	movwf	lcd_4_send_string_position@str^0,c
  2117   0015BA  5029               	movf	lcd_4_send_string_position@str^0,w,c
  2118   0015BC  A4D8               	btfss	status,2,c
  2119   0015BE  0E10               	movlw	high __smallconst
  2120   0015C0  6E2A               	movwf	(lcd_4_send_string_position@str+1)^0,c
  2121   0015C2  EC3F  F012         	call	_lcd_4_send_string_position	;wreg free
  2122   0015C6  6E5D               	movwf	_ret^0,c
  2123                           
  2124                           ;application.c: 111:             while(!value)
  2125   0015C8  EFED  F00A         	goto	l6711
  2126   0015CC                     l6709:
  2127                           
  2128                           ;application.c: 112:             {;application.c: 113:                ret = keypad_get_v
      +                          alue(&KeyPad1 , &value);
  2129   0015CC  0EE3               	movlw	low _KeyPad1
  2130   0015CE  6E1A               	movwf	keypad_get_value@_keypad_obj^0,c
  2131   0015D0  0E59               	movlw	low _value
  2132   0015D2  6E1B               	movwf	keypad_get_value@value^0,c
  2133   0015D4  EC95  F00F         	call	_keypad_get_value	;wreg free
  2134   0015D8  6E5D               	movwf	_ret^0,c
  2135   0015DA                     l6711:
  2136                           
  2137                           ;application.c: 111:             while(!value)
  2138   0015DA  5059               	movf	_value^0,w,c
  2139   0015DC  B4D8               	btfsc	status,2,c
  2140   0015DE  EFF3  F00A         	goto	u5961
  2141   0015E2  EFF5  F00A         	goto	u5960
  2142   0015E6                     u5961:
  2143   0015E6  EFE6  F00A         	goto	l6709
  2144   0015EA                     u5960:
  2145   0015EA                     
  2146                           ;application.c: 115:             ret = lcd_4_send_command(&lcd_1 , 0X01);
  2147   0015EA  0E62               	movlw	low _lcd_1
  2148   0015EC  6E1D               	movwf	lcd_4_send_command@lcd^0,c
  2149   0015EE  0E01               	movlw	1
  2150   0015F0  6E1E               	movwf	lcd_4_send_command@command^0,c
  2151   0015F2  ECD8  F016         	call	_lcd_4_send_command	;wreg free
  2152   0015F6  6E5D               	movwf	_ret^0,c
  2153   0015F8                     
  2154                           ;application.c: 116:             _delay((unsigned long)((100)*(8000000/4000.0)));
  2155   0015F8  0E02               	movlw	2
  2156   0015FA  0101               	movlb	1	; () banked
  2157   0015FC  6F33               	movwf	(??_main+1)& (0+255),b
  2158   0015FE  0E04               	movlw	4
  2159   001600  6F32               	movwf	??_main& (0+255),b
  2160   001602  0EBA               	movlw	186
  2161   001604                     u6147:
  2162   001604  2EE8               	decfsz	wreg,f,c
  2163   001606  D7FE               	bra	u6147
  2164   001608  2F32               	decfsz	??_main& (0+255),f,b
  2165   00160A  D7FC               	bra	u6147
  2166   00160C  2F33               	decfsz	(??_main+1)& (0+255),f,b
  2167   00160E  D7FA               	bra	u6147
  2168   001610  0000               	nop	
  2169   001612                     
  2170                           ;application.c: 117:             value -= 48;
  2171   001612  0E30               	movlw	48
  2172   001614  5E59               	subwf	_value^0,f,c
  2173                           
  2174                           ;application.c: 118:             switch(value)
  2175   001616  EF7A  F00B         	goto	l6747
  2176   00161A                     l6719:
  2177                           
  2178                           ; BSR set to: 1
  2179                           ;application.c: 121:                     ret = dc_motor_stop(&motor_1);
  2180   00161A  0E68               	movlw	low _motor_1
  2181   00161C  6E1A               	movwf	dc_motor_stop@_dc_motor^0,c
  2182   00161E  ECBD  F017         	call	_dc_motor_stop	;wreg free
  2183   001622  6E5D               	movwf	_ret^0,c
  2184   001624                     
  2185                           ;application.c: 122:                     _delay((unsigned long)((300)*(8000000/4000.0)))
      +                          ;
  2186   001624  0E04               	movlw	4
  2187   001626  0101               	movlb	1	; () banked
  2188   001628  6F33               	movwf	(??_main+1)& (0+255),b
  2189   00162A  0E0C               	movlw	12
  2190   00162C  6F32               	movwf	??_main& (0+255),b
  2191   00162E  0E33               	movlw	51
  2192   001630                     u6157:
  2193   001630  2EE8               	decfsz	wreg,f,c
  2194   001632  D7FE               	bra	u6157
  2195   001634  2F32               	decfsz	??_main& (0+255),f,b
  2196   001636  D7FC               	bra	u6157
  2197   001638  2F33               	decfsz	(??_main+1)& (0+255),f,b
  2198   00163A  D7FA               	bra	u6157
  2199   00163C  D000               	nop2	
  2200   00163E                     
  2201                           ;application.c: 123:                     ret = dc_motor_move_right(&motor_1);
  2202   00163E  0E68               	movlw	low _motor_1
  2203   001640  6E1A               	movwf	dc_motor_move_right@_dc_motor^0,c
  2204   001642  ECDB  F017         	call	_dc_motor_move_right	;wreg free
  2205   001646  6E5D               	movwf	_ret^0,c
  2206   001648                     l6725:
  2207                           
  2208                           ;application.c: 124:                     ret = led_turn_on(&led_green);
  2209   001648  0E6C               	movlw	low _led_green
  2210   00164A  6E1A               	movwf	led_turn_on@led^0,c
  2211   00164C  EC54  F014         	call	_led_turn_on	;wreg free
  2212   001650  6E5D               	movwf	_ret^0,c
  2213                           
  2214                           ;application.c: 125:                     break;
  2215   001652  EFB0  F00A         	goto	l6699
  2216   001656                     l6727:
  2217                           
  2218                           ; BSR set to: 1
  2219                           ;application.c: 127:                     ret = dc_motor_stop(&motor_1);
  2220   001656  0E68               	movlw	low _motor_1
  2221   001658  6E1A               	movwf	dc_motor_stop@_dc_motor^0,c
  2222   00165A  ECBD  F017         	call	_dc_motor_stop	;wreg free
  2223   00165E  6E5D               	movwf	_ret^0,c
  2224   001660                     
  2225                           ;application.c: 128:                     _delay((unsigned long)((300)*(8000000/4000.0)))
      +                          ;
  2226   001660  0E04               	movlw	4
  2227   001662  0101               	movlb	1	; () banked
  2228   001664  6F33               	movwf	(??_main+1)& (0+255),b
  2229   001666  0E0C               	movlw	12
  2230   001668  6F32               	movwf	??_main& (0+255),b
  2231   00166A  0E33               	movlw	51
  2232   00166C                     u6167:
  2233   00166C  2EE8               	decfsz	wreg,f,c
  2234   00166E  D7FE               	bra	u6167
  2235   001670  2F32               	decfsz	??_main& (0+255),f,b
  2236   001672  D7FC               	bra	u6167
  2237   001674  2F33               	decfsz	(??_main+1)& (0+255),f,b
  2238   001676  D7FA               	bra	u6167
  2239   001678  D000               	nop2	
  2240   00167A                     
  2241                           ;application.c: 129:                     ret = dc_motor_move_left(&motor_1);
  2242   00167A  0E68               	movlw	low _motor_1
  2243   00167C  6E1A               	movwf	dc_motor_move_left@_dc_motor^0,c
  2244   00167E  ECF9  F017         	call	_dc_motor_move_left	;wreg free
  2245   001682  6E5D               	movwf	_ret^0,c
  2246   001684  EF24  F00B         	goto	l6725
  2247   001688                     l6735:
  2248                           
  2249                           ; BSR set to: 1
  2250                           ;application.c: 133:                     ret = dc_motor_move_toggle(&motor_1);
  2251   001688  0E68               	movlw	low _motor_1
  2252   00168A  6E18               	movwf	dc_motor_move_toggle@_dc_motor^0,c
  2253   00168C  EC31  F018         	call	_dc_motor_move_toggle	;wreg free
  2254   001690  6E5D               	movwf	_ret^0,c
  2255                           
  2256                           ;application.c: 134:                     ret = led_turn_on(&led_green);
  2257   001692  0E6C               	movlw	low _led_green
  2258   001694  6E1A               	movwf	led_turn_on@led^0,c
  2259   001696  EC54  F014         	call	_led_turn_on	;wreg free
  2260   00169A  6E5D               	movwf	_ret^0,c
  2261                           
  2262                           ;application.c: 135:                     break;
  2263   00169C  EFB0  F00A         	goto	l6699
  2264   0016A0                     l6737:
  2265                           
  2266                           ; BSR set to: 1
  2267                           ;application.c: 137:                     ret = dc_motor_stop(&motor_1);
  2268   0016A0  0E68               	movlw	low _motor_1
  2269   0016A2  6E1A               	movwf	dc_motor_stop@_dc_motor^0,c
  2270   0016A4  ECBD  F017         	call	_dc_motor_stop	;wreg free
  2271   0016A8  6E5D               	movwf	_ret^0,c
  2272                           
  2273                           ;application.c: 138:                     ret = led_turn_off(&led_green);
  2274   0016AA  0E6C               	movlw	low _led_green
  2275   0016AC  6E1A               	movwf	led_turn_off@led^0,c
  2276   0016AE  EC8E  F014         	call	_led_turn_off	;wreg free
  2277   0016B2  6E5D               	movwf	_ret^0,c
  2278   0016B4                     l6739:
  2279                           
  2280                           ;application.c: 139:                     _delay((unsigned long)((1000)*(8000000/4000.0))
      +                          );
  2281   0016B4  0E0B               	movlw	11
  2282   0016B6  0101               	movlb	1	; () banked
  2283   0016B8  6F33               	movwf	(??_main+1)& (0+255),b
  2284   0016BA  0E26               	movlw	38
  2285   0016BC  6F32               	movwf	??_main& (0+255),b
  2286   0016BE  0E5D               	movlw	93
  2287   0016C0                     u6177:
  2288   0016C0  2EE8               	decfsz	wreg,f,c
  2289   0016C2  D7FE               	bra	u6177
  2290   0016C4  2F32               	decfsz	??_main& (0+255),f,b
  2291   0016C6  D7FC               	bra	u6177
  2292   0016C8  2F33               	decfsz	(??_main+1)& (0+255),f,b
  2293   0016CA  D7FA               	bra	u6177
  2294   0016CC  D000               	nop2	
  2295                           
  2296                           ;application.c: 140:                     break;
  2297   0016CE  EFB0  F00A         	goto	l6699
  2298   0016D2                     l6741:
  2299                           
  2300                           ; BSR set to: 1
  2301                           ;application.c: 142:                     ret = lcd_4_send_string_position(&lcd_1 , 1 , 1
      +                           , (uint8*)"choose 1->4");
  2302   0016D2  0E62               	movlw	low _lcd_1
  2303   0016D4  6E26               	movwf	lcd_4_send_string_position@lcd^0,c
  2304   0016D6  0E01               	movlw	1
  2305   0016D8  6E27               	movwf	lcd_4_send_string_position@row^0,c
  2306   0016DA  0E01               	movlw	1
  2307   0016DC  6E28               	movwf	lcd_4_send_string_position@column^0,c
  2308   0016DE  0E9C               	movlw	low STR_16
  2309   0016E0  6E29               	movwf	lcd_4_send_string_position@str^0,c
  2310   0016E2  5029               	movf	lcd_4_send_string_position@str^0,w,c
  2311   0016E4  A4D8               	btfss	status,2,c
  2312   0016E6  0E10               	movlw	high __smallconst
  2313   0016E8  6E2A               	movwf	(lcd_4_send_string_position@str+1)^0,c
  2314   0016EA  EC3F  F012         	call	_lcd_4_send_string_position	;wreg free
  2315   0016EE  6E5D               	movwf	_ret^0,c
  2316   0016F0  EF5A  F00B         	goto	l6739
  2317   0016F4                     l6747:
  2318   0016F4  5059               	movf	_value^0,w,c
  2319   0016F6  0101               	movlb	1	; () banked
  2320   0016F8  6F32               	movwf	??_main& (0+255),b
  2321   0016FA  6B33               	clrf	(??_main+1)& (0+255),b
  2322                           
  2323                           ; Switch on 2 bytes has been partitioned into a top level switch of size 1, and 1 sub-sw
      +                          itches
  2324                           ; Switch size 1, requested type "simple"
  2325                           ; Number of cases is 1, Range of values is 0 to 0
  2326                           ; switch strategies available:
  2327                           ; Name         Instructions Cycles
  2328                           ; simple_byte            4     3 (average)
  2329                           ;	Chosen strategy is simple_byte
  2330   0016FC  5133               	movf	(??_main+1)& (0+255),w,b
  2331   0016FE  0A00               	xorlw	0	; case 0
  2332   001700  B4D8               	btfsc	status,2,c
  2333   001702  EF85  F00B         	goto	l6865
  2334   001706  EF69  F00B         	goto	l6741
  2335   00170A                     l6865:
  2336                           
  2337                           ; BSR set to: 1
  2338                           ; Switch size 1, requested type "simple"
  2339                           ; Number of cases is 4, Range of values is 1 to 4
  2340                           ; switch strategies available:
  2341                           ; Name         Instructions Cycles
  2342                           ; simple_byte           13     7 (average)
  2343                           ;	Chosen strategy is simple_byte
  2344   00170A  5132               	movf	??_main& (0+255),w,b
  2345   00170C  0A01               	xorlw	1	; case 1
  2346   00170E  B4D8               	btfsc	status,2,c
  2347   001710  EF0D  F00B         	goto	l6719
  2348   001714  0A03               	xorlw	3	; case 2
  2349   001716  B4D8               	btfsc	status,2,c
  2350   001718  EF2B  F00B         	goto	l6727
  2351   00171C  0A01               	xorlw	1	; case 3
  2352   00171E  B4D8               	btfsc	status,2,c
  2353   001720  EF44  F00B         	goto	l6735
  2354   001724  0A07               	xorlw	7	; case 4
  2355   001726  B4D8               	btfsc	status,2,c
  2356   001728  EF50  F00B         	goto	l6737
  2357   00172C  EF69  F00B         	goto	l6741
  2358   001730  EF07  F000         	goto	start
  2359   001734                     __end_of_main:
  2360                           	callstack 0
  2361                           
  2362 ;; *************** function _strcmp *****************
  2363 ;; Defined at:
  2364 ;;		line 3 in file "C:\Program Files\Microchip\xc8\v2.45\pic\sources\c99\common\strcmp.c"
  2365 ;; Parameters:    Size  Location     Type
  2366 ;;  l               1   17[COMRAM] PTR const unsigned char 
  2367 ;;		 -> YourPass(6), 
  2368 ;;  r               1   18[COMRAM] PTR const unsigned char 
  2369 ;;		 -> pass(6), 
  2370 ;; Auto vars:     Size  Location     Type
  2371 ;;		None
  2372 ;; Return value:  Size  Location     Type
  2373 ;;                  2   17[COMRAM] int 
  2374 ;; Registers used:
  2375 ;;		wreg, fsr1l, fsr1h, fsr2l, fsr2h, status,2, status,0
  2376 ;; Tracked objects:
  2377 ;;		On entry : 0/0
  2378 ;;		On exit  : 0/0
  2379 ;;		Unchanged: 0/0
  2380 ;; Data sizes:     COMRAM   BANK0   BANK1   BANK2   BANK3   BANK4   BANK5   BANK6   BANK7   BANK8   BANK9  BANK10  BANK1
      +1  BANK12  BANK13  BANK14  BANK15
  2381 ;;      Params:         2       0       0       0       0       0       0       0       0       0       0       0       
      +0       0       0       0       0
  2382 ;;      Locals:         0       0       0       0       0       0       0       0       0       0       0       0       
      +0       0       0       0       0
  2383 ;;      Temps:          2       0       0       0       0       0       0       0       0       0       0       0       
      +0       0       0       0       0
  2384 ;;      Totals:         4       0       0       0       0       0       0       0       0       0       0       0       
      +0       0       0       0       0
  2385 ;;Total ram usage:        4 bytes
  2386 ;; Hardware stack levels used: 1
  2387 ;; Hardware stack levels required when called: 5
  2388 ;; This function calls:
  2389 ;;		Nothing
  2390 ;; This function is called by:
  2391 ;;		_main
  2392 ;; This function uses a non-reentrant model
  2393 ;;
  2394                           
  2395                           	psect	text1
  2396   002CF6                     __ptext1:
  2397                           	callstack 0
  2398   002CF6                     _strcmp:
  2399                           	callstack 25
  2400   002CF6  EF7F  F016         	goto	l5071
  2401   002CFA                     l5069:
  2402   002CFA  2A12               	incf	strcmp@l^0,f,c
  2403   002CFC  2A13               	incf	strcmp@r^0,f,c
  2404   002CFE                     l5071:
  2405   002CFE  5013               	movf	strcmp@r^0,w,c
  2406   002D00  6ED9               	movwf	fsr2l,c
  2407   002D02  6ADA               	clrf	fsr2h,c
  2408   002D04  5012               	movf	strcmp@l^0,w,c
  2409   002D06  6EE1               	movwf	fsr1l,c
  2410   002D08  6AE2               	clrf	fsr1h,c
  2411   002D0A  50DE               	movf	postinc2,w,c
  2412   002D0C  18E6               	xorwf	postinc1,w,c
  2413   002D0E  A4D8               	btfss	status,2,c
  2414   002D10  EF8C  F016         	goto	u4161
  2415   002D14  EF8E  F016         	goto	u4160
  2416   002D18                     u4161:
  2417   002D18  EF99  F016         	goto	l5075
  2418   002D1C                     u4160:
  2419   002D1C  5012               	movf	strcmp@l^0,w,c
  2420   002D1E  6ED9               	movwf	fsr2l,c
  2421   002D20  6ADA               	clrf	fsr2h,c
  2422   002D22  50DF               	movf	indf2,w,c
  2423   002D24  A4D8               	btfss	status,2,c
  2424   002D26  EF97  F016         	goto	u4171
  2425   002D2A  EF99  F016         	goto	u4170
  2426   002D2E                     u4171:
  2427   002D2E  EF7D  F016         	goto	l5069
  2428   002D32                     u4170:
  2429   002D32                     l5075:
  2430   002D32  5012               	movf	strcmp@l^0,w,c
  2431   002D34  6ED9               	movwf	fsr2l,c
  2432   002D36  6ADA               	clrf	fsr2h,c
  2433   002D38  50DF               	movf	indf2,w,c
  2434   002D3A  6E14               	movwf	??_strcmp^0,c
  2435   002D3C  5013               	movf	strcmp@r^0,w,c
  2436   002D3E  6ED9               	movwf	fsr2l,c
  2437   002D40  6ADA               	clrf	fsr2h,c
  2438   002D42  50DF               	movf	indf2,w,c
  2439   002D44  6E15               	movwf	(??_strcmp+1)^0,c
  2440   002D46  5015               	movf	(??_strcmp+1)^0,w,c
  2441   002D48  5C14               	subwf	??_strcmp^0,w,c
  2442   002D4A  6E12               	movwf	?_strcmp^0,c
  2443   002D4C  6A13               	clrf	(?_strcmp+1)^0,c
  2444   002D4E  A0D8               	btfss	status,0,c
  2445   002D50  0613               	decf	(?_strcmp+1)^0,f,c
  2446   002D52  0012               	return		;funcret
  2447   002D54                     __end_of_strcmp:
  2448                           	callstack 0
  2449                           
  2450 ;; *************** function _led_turn_on *****************
  2451 ;; Defined at:
  2452 ;;		line 36 in file "ECU_Layer/LED/ecu_led.c"
  2453 ;; Parameters:    Size  Location     Type
  2454 ;;  led             1   25[COMRAM] PTR const struct .
  2455 ;;		 -> led3(1), led2(1), led_red(1), led_green(1), 
  2456 ;; Auto vars:     Size  Location     Type
  2457 ;;  pin_obj         1   28[COMRAM] struct .
  2458 ;;  ret             1   27[COMRAM] unsigned char 
  2459 ;; Return value:  Size  Location     Type
  2460 ;;                  1    wreg      unsigned char 
  2461 ;; Registers used:
  2462 ;;		wreg, fsr2l, fsr2h, status,2, status,0, prodl, prodh, cstack
  2463 ;; Tracked objects:
  2464 ;;		On entry : 0/0
  2465 ;;		On exit  : 0/0
  2466 ;;		Unchanged: 0/0
  2467 ;; Data sizes:     COMRAM   BANK0   BANK1   BANK2   BANK3   BANK4   BANK5   BANK6   BANK7   BANK8   BANK9  BANK10  BANK1
      +1  BANK12  BANK13  BANK14  BANK15
  2468 ;;      Params:         1       0       0       0       0       0       0       0       0       0       0       0       
      +0       0       0       0       0
  2469 ;;      Locals:         2       0       0       0       0       0       0       0       0       0       0       0       
      +0       0       0       0       0
  2470 ;;      Temps:          1       0       0       0       0       0       0       0       0       0       0       0       
      +0       0       0       0       0
  2471 ;;      Totals:         4       0       0       0       0       0       0       0       0       0       0       0       
      +0       0       0       0       0
  2472 ;;Total ram usage:        4 bytes
  2473 ;; Hardware stack levels used: 1
  2474 ;; Hardware stack levels required when called: 6
  2475 ;; This function calls:
  2476 ;;		_gpio_pin_write_logic
  2477 ;; This function is called by:
  2478 ;;		_main
  2479 ;; This function uses a non-reentrant model
  2480 ;;
  2481                           
  2482                           	psect	text2
  2483   0028A8                     __ptext2:
  2484                           	callstack 0
  2485   0028A8                     _led_turn_on:
  2486                           	callstack 24
  2487   0028A8                     
  2488                           ;ECU_Layer/LED/ecu_led.c: 36: std_ReturneType led_turn_on(const led_t *led);ECU_Layer/LE
      +                          D/ecu_led.c: 37: {;ECU_Layer/LED/ecu_led.c: 38:     std_ReturneType ret = (std_ReturneTy
      +                          pe)0x01 ;
  2489   0028A8  0E01               	movlw	1
  2490   0028AA  6E1C               	movwf	led_turn_on@ret^0,c
  2491   0028AC                     
  2492                           ;ECU_Layer/LED/ecu_led.c: 39:     pin_config_t pin_obj = {.port = led->port_name
  2493   0028AC  C057  F01D         	movff	led_turn_on@F3484,led_turn_on@pin_obj
  2494   0028B0  501A               	movf	led_turn_on@led^0,w,c
  2495   0028B2  6ED9               	movwf	fsr2l,c
  2496   0028B4  6ADA               	clrf	fsr2h,c
  2497   0028B6  50DF               	movf	223,w,c
  2498   0028B8  0B0F               	andlw	15
  2499   0028BA  6E1B               	movwf	??_led_turn_on^0,c
  2500   0028BC  501D               	movf	led_turn_on@pin_obj^0,w,c
  2501   0028BE  181B               	xorwf	??_led_turn_on^0,w,c
  2502   0028C0  0BF8               	andlw	-8
  2503   0028C2  181B               	xorwf	??_led_turn_on^0,w,c
  2504   0028C4  6E1D               	movwf	led_turn_on@pin_obj^0,c
  2505   0028C6  501A               	movf	led_turn_on@led^0,w,c
  2506   0028C8  6ED9               	movwf	fsr2l,c
  2507   0028CA  6ADA               	clrf	fsr2h,c
  2508   0028CC  38DF               	swapf	223,w,c
  2509   0028CE  0B07               	andlw	7
  2510   0028D0  6E1B               	movwf	??_led_turn_on^0,c
  2511   0028D2  461B               	rlncf	??_led_turn_on^0,f,c
  2512   0028D4  461B               	rlncf	??_led_turn_on^0,f,c
  2513   0028D6  461B               	rlncf	??_led_turn_on^0,f,c
  2514   0028D8  501D               	movf	led_turn_on@pin_obj^0,w,c
  2515   0028DA  181B               	xorwf	??_led_turn_on^0,w,c
  2516   0028DC  0BC7               	andlw	-57
  2517   0028DE  181B               	xorwf	??_led_turn_on^0,w,c
  2518   0028E0  6E1D               	movwf	led_turn_on@pin_obj^0,c
  2519   0028E2  9C1D               	bcf	led_turn_on@pin_obj^0,6,c
  2520   0028E4  501A               	movf	led_turn_on@led^0,w,c
  2521   0028E6  6ED9               	movwf	fsr2l,c
  2522   0028E8  6ADA               	clrf	fsr2h,c
  2523   0028EA  AEDF               	btfss	indf2,7,c
  2524   0028EC  D002               	bra	u3815
  2525   0028EE  8E1D               	bsf	led_turn_on@pin_obj^0,7,c
  2526   0028F0  D001               	bra	u3817
  2527   0028F2                     u3815:
  2528   0028F2  9E1D               	bcf	led_turn_on@pin_obj^0,7,c
  2529   0028F4                     u3817:
  2530   0028F4                     
  2531                           ;ECU_Layer/LED/ecu_led.c: 43:     if(((void*)0) == led)
  2532   0028F4  501A               	movf	led_turn_on@led^0,w,c
  2533   0028F6  A4D8               	btfss	status,2,c
  2534   0028F8  EF80  F014         	goto	u3821
  2535   0028FC  EF82  F014         	goto	u3820
  2536   002900                     u3821:
  2537   002900  EF86  F014         	goto	l4937
  2538   002904                     u3820:
  2539   002904                     
  2540                           ;ECU_Layer/LED/ecu_led.c: 44:         ret = (std_ReturneType)0x00 ;
  2541   002904  0E00               	movlw	0
  2542   002906  6E1C               	movwf	led_turn_on@ret^0,c
  2543   002908  EF8C  F014         	goto	l4939
  2544   00290C                     l4937:
  2545                           
  2546                           ;ECU_Layer/LED/ecu_led.c: 46:     {;ECU_Layer/LED/ecu_led.c: 47:         gpio_pin_write_
      +                          logic(&pin_obj , HIGH);
  2547   00290C  0E1D               	movlw	low led_turn_on@pin_obj
  2548   00290E  6E12               	movwf	gpio_pin_write_logic@_pin_config^0,c
  2549   002910  0E01               	movlw	1
  2550   002912  6E13               	movwf	gpio_pin_write_logic@logic^0,c
  2551   002914  EC8A  F00E         	call	_gpio_pin_write_logic	;wreg free
  2552   002918                     l4939:
  2553                           
  2554                           ;ECU_Layer/LED/ecu_led.c: 50:     return ret ;
  2555   002918  501C               	movf	led_turn_on@ret^0,w,c
  2556   00291A  0012               	return		;funcret
  2557   00291C                     __end_of_led_turn_on:
  2558                           	callstack 0
  2559                           
  2560 ;; *************** function _led_turn_off *****************
  2561 ;; Defined at:
  2562 ;;		line 61 in file "ECU_Layer/LED/ecu_led.c"
  2563 ;; Parameters:    Size  Location     Type
  2564 ;;  led             1   25[COMRAM] PTR const struct .
  2565 ;;		 -> led3(1), led2(1), led_red(1), led_green(1), 
  2566 ;; Auto vars:     Size  Location     Type
  2567 ;;  pin_obj         1   28[COMRAM] struct .
  2568 ;;  ret             1   27[COMRAM] unsigned char 
  2569 ;; Return value:  Size  Location     Type
  2570 ;;                  1    wreg      unsigned char 
  2571 ;; Registers used:
  2572 ;;		wreg, fsr2l, fsr2h, status,2, status,0, prodl, prodh, cstack
  2573 ;; Tracked objects:
  2574 ;;		On entry : 0/0
  2575 ;;		On exit  : 0/0
  2576 ;;		Unchanged: 0/0
  2577 ;; Data sizes:     COMRAM   BANK0   BANK1   BANK2   BANK3   BANK4   BANK5   BANK6   BANK7   BANK8   BANK9  BANK10  BANK1
      +1  BANK12  BANK13  BANK14  BANK15
  2578 ;;      Params:         1       0       0       0       0       0       0       0       0       0       0       0       
      +0       0       0       0       0
  2579 ;;      Locals:         2       0       0       0       0       0       0       0       0       0       0       0       
      +0       0       0       0       0
  2580 ;;      Temps:          1       0       0       0       0       0       0       0       0       0       0       0       
      +0       0       0       0       0
  2581 ;;      Totals:         4       0       0       0       0       0       0       0       0       0       0       0       
      +0       0       0       0       0
  2582 ;;Total ram usage:        4 bytes
  2583 ;; Hardware stack levels used: 1
  2584 ;; Hardware stack levels required when called: 6
  2585 ;; This function calls:
  2586 ;;		_gpio_pin_write_logic
  2587 ;; This function is called by:
  2588 ;;		_main
  2589 ;; This function uses a non-reentrant model
  2590 ;;
  2591                           
  2592                           	psect	text3
  2593   00291C                     __ptext3:
  2594                           	callstack 0
  2595   00291C                     _led_turn_off:
  2596                           	callstack 24
  2597   00291C                     
  2598                           ;ECU_Layer/LED/ecu_led.c: 61: std_ReturneType led_turn_off(const led_t *led);ECU_Layer/L
      +                          ED/ecu_led.c: 62: {;ECU_Layer/LED/ecu_led.c: 63:     std_ReturneType ret = (std_ReturneT
      +                          ype)0x01 ;
  2599   00291C  0E01               	movlw	1
  2600   00291E  6E1C               	movwf	led_turn_off@ret^0,c
  2601   002920                     
  2602                           ;ECU_Layer/LED/ecu_led.c: 64:     pin_config_t pin_obj = {.port = led->port_name
  2603   002920  C056  F01D         	movff	led_turn_off@F3489,led_turn_off@pin_obj
  2604   002924  501A               	movf	led_turn_off@led^0,w,c
  2605   002926  6ED9               	movwf	fsr2l,c
  2606   002928  6ADA               	clrf	fsr2h,c
  2607   00292A  50DF               	movf	223,w,c
  2608   00292C  0B0F               	andlw	15
  2609   00292E  6E1B               	movwf	??_led_turn_off^0,c
  2610   002930  501D               	movf	led_turn_off@pin_obj^0,w,c
  2611   002932  181B               	xorwf	??_led_turn_off^0,w,c
  2612   002934  0BF8               	andlw	-8
  2613   002936  181B               	xorwf	??_led_turn_off^0,w,c
  2614   002938  6E1D               	movwf	led_turn_off@pin_obj^0,c
  2615   00293A  501A               	movf	led_turn_off@led^0,w,c
  2616   00293C  6ED9               	movwf	fsr2l,c
  2617   00293E  6ADA               	clrf	fsr2h,c
  2618   002940  38DF               	swapf	223,w,c
  2619   002942  0B07               	andlw	7
  2620   002944  6E1B               	movwf	??_led_turn_off^0,c
  2621   002946  461B               	rlncf	??_led_turn_off^0,f,c
  2622   002948  461B               	rlncf	??_led_turn_off^0,f,c
  2623   00294A  461B               	rlncf	??_led_turn_off^0,f,c
  2624   00294C  501D               	movf	led_turn_off@pin_obj^0,w,c
  2625   00294E  181B               	xorwf	??_led_turn_off^0,w,c
  2626   002950  0BC7               	andlw	-57
  2627   002952  181B               	xorwf	??_led_turn_off^0,w,c
  2628   002954  6E1D               	movwf	led_turn_off@pin_obj^0,c
  2629   002956  9C1D               	bcf	led_turn_off@pin_obj^0,6,c
  2630   002958  501A               	movf	led_turn_off@led^0,w,c
  2631   00295A  6ED9               	movwf	fsr2l,c
  2632   00295C  6ADA               	clrf	fsr2h,c
  2633   00295E  AEDF               	btfss	indf2,7,c
  2634   002960  D002               	bra	u3835
  2635   002962  8E1D               	bsf	led_turn_off@pin_obj^0,7,c
  2636   002964  D001               	bra	u3837
  2637   002966                     u3835:
  2638   002966  9E1D               	bcf	led_turn_off@pin_obj^0,7,c
  2639   002968                     u3837:
  2640   002968                     
  2641                           ;ECU_Layer/LED/ecu_led.c: 68:     if(((void*)0) == led)
  2642   002968  501A               	movf	led_turn_off@led^0,w,c
  2643   00296A  A4D8               	btfss	status,2,c
  2644   00296C  EFBA  F014         	goto	u3841
  2645   002970  EFBC  F014         	goto	u3840
  2646   002974                     u3841:
  2647   002974  EFC0  F014         	goto	l4959
  2648   002978                     u3840:
  2649   002978                     
  2650                           ;ECU_Layer/LED/ecu_led.c: 69:         ret = (std_ReturneType)0x00 ;
  2651   002978  0E00               	movlw	0
  2652   00297A  6E1C               	movwf	led_turn_off@ret^0,c
  2653   00297C  EFC6  F014         	goto	l4961
  2654   002980                     l4959:
  2655                           
  2656                           ;ECU_Layer/LED/ecu_led.c: 71:     {;ECU_Layer/LED/ecu_led.c: 72:         gpio_pin_write_
      +                          logic(&pin_obj , LOW);
  2657   002980  0E1D               	movlw	low led_turn_off@pin_obj
  2658   002982  6E12               	movwf	gpio_pin_write_logic@_pin_config^0,c
  2659   002984  0E00               	movlw	0
  2660   002986  6E13               	movwf	gpio_pin_write_logic@logic^0,c
  2661   002988  EC8A  F00E         	call	_gpio_pin_write_logic	;wreg free
  2662   00298C                     l4961:
  2663                           
  2664                           ;ECU_Layer/LED/ecu_led.c: 75:     return ret ;
  2665   00298C  501C               	movf	led_turn_off@ret^0,w,c
  2666   00298E  0012               	return		;funcret
  2667   002990                     __end_of_led_turn_off:
  2668                           	callstack 0
  2669                           
  2670 ;; *************** function _lcd_4_send_string_position *****************
  2671 ;; Defined at:
  2672 ;;		line 113 in file "ECU_Layer/Chr_LCD/ecu_chr_lcd.c"
  2673 ;; Parameters:    Size  Location     Type
  2674 ;;  lcd             1   37[COMRAM] PTR struct .
  2675 ;;		 -> lcd_1(6), 
  2676 ;;  row             1   38[COMRAM] unsigned char 
  2677 ;;  column          1   39[COMRAM] unsigned char 
  2678 ;;  str             2   40[COMRAM] PTR unsigned char 
  2679 ;;		 -> STR_16(12), STR_15(16), STR_14(15), STR_13(7), 
  2680 ;;		 -> STR_12(13), STR_11(17), STR_10(16), result_txt(6), 
  2681 ;;		 -> STR_9(17), STR_8(11), STR_7(13), STR_6(2), 
  2682 ;;		 -> STR_5(16), STR_4(16), 
  2683 ;; Auto vars:     Size  Location     Type
  2684 ;;  ret             1   42[COMRAM] unsigned char 
  2685 ;; Return value:  Size  Location     Type
  2686 ;;                  1    wreg      unsigned char 
  2687 ;; Registers used:
  2688 ;;		wreg, fsr0l, fsr0h, fsr2l, fsr2h, status,2, status,0, tblptrl, tblptrh, tblptru, prodl, prodh, cstack
  2689 ;; Tracked objects:
  2690 ;;		On entry : 0/0
  2691 ;;		On exit  : 0/0
  2692 ;;		Unchanged: 0/0
  2693 ;; Data sizes:     COMRAM   BANK0   BANK1   BANK2   BANK3   BANK4   BANK5   BANK6   BANK7   BANK8   BANK9  BANK10  BANK1
      +1  BANK12  BANK13  BANK14  BANK15
  2694 ;;      Params:         5       0       0       0       0       0       0       0       0       0       0       0       
      +0       0       0       0       0
  2695 ;;      Locals:         1       0       0       0       0       0       0       0       0       0       0       0       
      +0       0       0       0       0
  2696 ;;      Temps:          0       0       0       0       0       0       0       0       0       0       0       0       
      +0       0       0       0       0
  2697 ;;      Totals:         6       0       0       0       0       0       0       0       0       0       0       0       
      +0       0       0       0       0
  2698 ;;Total ram usage:        6 bytes
  2699 ;; Hardware stack levels used: 1
  2700 ;; Hardware stack levels required when called: 9
  2701 ;; This function calls:
  2702 ;;		_lcd_4_send_char_data
  2703 ;;		_lcd_4bit_set_cursor
  2704 ;; This function is called by:
  2705 ;;		_main
  2706 ;; This function uses a non-reentrant model
  2707 ;;
  2708                           
  2709                           	psect	text4
  2710   00247E                     __ptext4:
  2711                           	callstack 0
  2712   00247E                     _lcd_4_send_string_position:
  2713                           	callstack 21
  2714   00247E                     
  2715                           ;ECU_Layer/Chr_LCD/ecu_chr_lcd.c: 116:     if(((void*)0) == lcd)
  2716   00247E  5026               	movf	lcd_4_send_string_position@lcd^0,w,c
  2717   002480  A4D8               	btfss	status,2,c
  2718   002482  EF45  F012         	goto	u3611
  2719   002486  EF47  F012         	goto	u3610
  2720   00248A                     u3611:
  2721   00248A  EF4B  F012         	goto	l4745
  2722   00248E                     u3610:
  2723   00248E                     
  2724                           ;ECU_Layer/Chr_LCD/ecu_chr_lcd.c: 117:         ret = (std_ReturneType)0x00 ;
  2725   00248E  0E00               	movlw	0
  2726   002490  6E2B               	movwf	lcd_4_send_string_position@ret^0,c
  2727   002492  EF88  F012         	goto	l4753
  2728   002496                     l4745:
  2729                           
  2730                           ;ECU_Layer/Chr_LCD/ecu_chr_lcd.c: 119:     {;ECU_Layer/Chr_LCD/ecu_chr_lcd.c: 120:      
      +                             ret = lcd_4bit_set_cursor(lcd , row , column);
  2731   002496  C026  F020         	movff	lcd_4_send_string_position@lcd,lcd_4bit_set_cursor@lcd
  2732   00249A  C027  F021         	movff	lcd_4_send_string_position@row,lcd_4bit_set_cursor@row
  2733   00249E  C028  F022         	movff	lcd_4_send_string_position@column,lcd_4bit_set_cursor@column
  2734   0024A2  EC3D  F011         	call	_lcd_4bit_set_cursor	;wreg free
  2735   0024A6  6E2B               	movwf	lcd_4_send_string_position@ret^0,c
  2736                           
  2737                           ;ECU_Layer/Chr_LCD/ecu_chr_lcd.c: 121:         while(*str)
  2738   0024A8  EF6F  F012         	goto	l4751
  2739   0024AC                     l4747:
  2740                           
  2741                           ;ECU_Layer/Chr_LCD/ecu_chr_lcd.c: 122:         {;ECU_Layer/Chr_LCD/ecu_chr_lcd.c: 123:  
      +                                     ret = lcd_4_send_char_data(lcd , *str++);
  2742   0024AC  C026  F01D         	movff	lcd_4_send_string_position@lcd,lcd_4_send_char_data@lcd
  2743   0024B0  C029  FFF6         	movff	lcd_4_send_string_position@str,tblptrl
  2744   0024B4  C02A  FFF7         	movff	lcd_4_send_string_position@str+1,tblptrh
  2745   0024B8  0E00               	movlw	low (__smallconst shr (0+16))
  2746   0024BA  6EF8               	movwf	tblptru,c
  2747   0024BC  0E0F               	movlw	(high __ramtop+-1)
  2748   0024BE  64F7               	cpfsgt	tblptrh,c
  2749   0024C0  D003               	bra	u3627
  2750   0024C2  0008               	tblrd		*
  2751   0024C4  50F5               	movf	tablat,w,c
  2752   0024C6  D005               	bra	u3620
  2753   0024C8                     u3627:
  2754   0024C8  CFF6 FFE9          	movff	tblptrl,fsr0l
  2755   0024CC  CFF7 FFEA          	movff	tblptrh,fsr0h
  2756   0024D0  50EF               	movf	indf0,w,c
  2757   0024D2                     u3620:
  2758   0024D2  6E1E               	movwf	lcd_4_send_char_data@data^0,c
  2759   0024D4  ECAA  F016         	call	_lcd_4_send_char_data	;wreg free
  2760   0024D8  6E2B               	movwf	lcd_4_send_string_position@ret^0,c
  2761   0024DA  4A29               	infsnz	lcd_4_send_string_position@str^0,f,c
  2762   0024DC  2A2A               	incf	(lcd_4_send_string_position@str+1)^0,f,c
  2763   0024DE                     l4751:
  2764                           
  2765                           ;ECU_Layer/Chr_LCD/ecu_chr_lcd.c: 121:         while(*str)
  2766   0024DE  C029  FFF6         	movff	lcd_4_send_string_position@str,tblptrl
  2767   0024E2  C02A  FFF7         	movff	lcd_4_send_string_position@str+1,tblptrh
  2768   0024E6  0E00               	movlw	low (__smallconst shr (0+16))
  2769   0024E8  6EF8               	movwf	tblptru,c
  2770   0024EA  0E0F               	movlw	(high __ramtop+-1)
  2771   0024EC  64F7               	cpfsgt	tblptrh,c
  2772   0024EE  D003               	bra	u3637
  2773   0024F0  0008               	tblrd		*
  2774   0024F2  50F5               	movf	tablat,w,c
  2775   0024F4  D005               	bra	u3630
  2776   0024F6                     u3637:
  2777   0024F6  CFF6 FFE9          	movff	tblptrl,fsr0l
  2778   0024FA  CFF7 FFEA          	movff	tblptrh,fsr0h
  2779   0024FE  50EF               	movf	indf0,w,c
  2780   002500                     u3630:
  2781   002500  0900               	iorlw	0
  2782   002502  A4D8               	btfss	status,2,c
  2783   002504  EF86  F012         	goto	u3641
  2784   002508  EF88  F012         	goto	u3640
  2785   00250C                     u3641:
  2786   00250C  EF56  F012         	goto	l4747
  2787   002510                     u3640:
  2788   002510                     l4753:
  2789                           
  2790                           ;ECU_Layer/Chr_LCD/ecu_chr_lcd.c: 126:     return ret ;
  2791   002510  502B               	movf	lcd_4_send_string_position@ret^0,w,c
  2792   002512  0012               	return		;funcret
  2793   002514                     __end_of_lcd_4_send_string_position:
  2794                           	callstack 0
  2795                           
  2796 ;; *************** function _lcd_4bit_set_cursor *****************
  2797 ;; Defined at:
  2798 ;;		line 428 in file "ECU_Layer/Chr_LCD/ecu_chr_lcd.c"
  2799 ;; Parameters:    Size  Location     Type
  2800 ;;  lcd             1   31[COMRAM] PTR struct .
  2801 ;;		 -> lcd_1(6), 
  2802 ;;  row             1   32[COMRAM] unsigned char 
  2803 ;;  column          1   33[COMRAM] unsigned char 
  2804 ;; Auto vars:     Size  Location     Type
  2805 ;;  ret             1   36[COMRAM] unsigned char 
  2806 ;; Return value:  Size  Location     Type
  2807 ;;                  1    wreg      unsigned char 
  2808 ;; Registers used:
  2809 ;;		wreg, fsr2l, fsr2h, status,2, status,0, prodl, prodh, cstack
  2810 ;; Tracked objects:
  2811 ;;		On entry : 0/0
  2812 ;;		On exit  : 0/0
  2813 ;;		Unchanged: 0/0
  2814 ;; Data sizes:     COMRAM   BANK0   BANK1   BANK2   BANK3   BANK4   BANK5   BANK6   BANK7   BANK8   BANK9  BANK10  BANK1
      +1  BANK12  BANK13  BANK14  BANK15
  2815 ;;      Params:         3       0       0       0       0       0       0       0       0       0       0       0       
      +0       0       0       0       0
  2816 ;;      Locals:         1       0       0       0       0       0       0       0       0       0       0       0       
      +0       0       0       0       0
  2817 ;;      Temps:          2       0       0       0       0       0       0       0       0       0       0       0       
      +0       0       0       0       0
  2818 ;;      Totals:         6       0       0       0       0       0       0       0       0       0       0       0       
      +0       0       0       0       0
  2819 ;;Total ram usage:        6 bytes
  2820 ;; Hardware stack levels used: 1
  2821 ;; Hardware stack levels required when called: 8
  2822 ;; This function calls:
  2823 ;;		_lcd_4_send_command
  2824 ;; This function is called by:
  2825 ;;		_lcd_4_send_string_position
  2826 ;;		_lcd_4_send_char_data_position
  2827 ;; This function uses a non-reentrant model
  2828 ;;
  2829                           
  2830                           	psect	text5
  2831   00227A                     __ptext5:
  2832                           	callstack 0
  2833   00227A                     _lcd_4bit_set_cursor:
  2834                           	callstack 21
  2835   00227A                     
  2836                           ;ECU_Layer/Chr_LCD/ecu_chr_lcd.c: 428: static std_ReturneType lcd_4bit_set_cursor(chr_lc
      +                          d_4bit_t *lcd , uint8 row , uint8 column);ECU_Layer/Chr_LCD/ecu_chr_lcd.c: 429: {;ECU_La
      +                          yer/Chr_LCD/ecu_chr_lcd.c: 430:     std_ReturneType ret = (std_ReturneType)0x01 ;
  2837   00227A  0E01               	movlw	1
  2838   00227C  6E25               	movwf	lcd_4bit_set_cursor@ret^0,c
  2839                           
  2840                           ;ECU_Layer/Chr_LCD/ecu_chr_lcd.c: 431:     if(((void*)0) == lcd)
  2841   00227E  5020               	movf	lcd_4bit_set_cursor@lcd^0,w,c
  2842   002280  A4D8               	btfss	status,2,c
  2843   002282  EF45  F011         	goto	u3451
  2844   002286  EF47  F011         	goto	u3450
  2845   00228A                     u3451:
  2846   00228A  EF4B  F011         	goto	l4557
  2847   00228E                     u3450:
  2848   00228E                     
  2849                           ;ECU_Layer/Chr_LCD/ecu_chr_lcd.c: 432:         ret = (std_ReturneType)0x00 ;
  2850   00228E  0E00               	movlw	0
  2851   002290  6E25               	movwf	lcd_4bit_set_cursor@ret^0,c
  2852   002292  EF93  F011         	goto	l4571
  2853   002296                     l4557:
  2854                           
  2855                           ;ECU_Layer/Chr_LCD/ecu_chr_lcd.c: 434:     {;ECU_Layer/Chr_LCD/ecu_chr_lcd.c: 435:      
      +                             column--;
  2856   002296  0622               	decf	lcd_4bit_set_cursor@column^0,f,c
  2857                           
  2858                           ;ECU_Layer/Chr_LCD/ecu_chr_lcd.c: 436:         switch (row)
  2859   002298  EF76  F011         	goto	l4569
  2860   00229C                     l4559:
  2861                           
  2862                           ;ECU_Layer/Chr_LCD/ecu_chr_lcd.c: 439:                 ret = lcd_4_send_command(lcd , ((
      +                          0X80) + column));
  2863   00229C  C020  F01D         	movff	lcd_4bit_set_cursor@lcd,lcd_4_send_command@lcd
  2864   0022A0  5022               	movf	lcd_4bit_set_cursor@column^0,w,c
  2865   0022A2  0F80               	addlw	128
  2866   0022A4  6E1E               	movwf	lcd_4_send_command@command^0,c
  2867   0022A6  ECD8  F016         	call	_lcd_4_send_command	;wreg free
  2868   0022AA  6E25               	movwf	lcd_4bit_set_cursor@ret^0,c
  2869                           
  2870                           ;ECU_Layer/Chr_LCD/ecu_chr_lcd.c: 440:                 break;
  2871   0022AC  EF93  F011         	goto	l4571
  2872   0022B0                     l4561:
  2873                           
  2874                           ;ECU_Layer/Chr_LCD/ecu_chr_lcd.c: 442:                 ret = lcd_4_send_command(lcd , ((
      +                          0XC0) + column));
  2875   0022B0  C020  F01D         	movff	lcd_4bit_set_cursor@lcd,lcd_4_send_command@lcd
  2876   0022B4  5022               	movf	lcd_4bit_set_cursor@column^0,w,c
  2877   0022B6  0FC0               	addlw	192
  2878   0022B8  6E1E               	movwf	lcd_4_send_command@command^0,c
  2879   0022BA  ECD8  F016         	call	_lcd_4_send_command	;wreg free
  2880   0022BE  6E25               	movwf	lcd_4bit_set_cursor@ret^0,c
  2881                           
  2882                           ;ECU_Layer/Chr_LCD/ecu_chr_lcd.c: 443:                 break;
  2883   0022C0  EF93  F011         	goto	l4571
  2884   0022C4                     l4563:
  2885                           
  2886                           ;ECU_Layer/Chr_LCD/ecu_chr_lcd.c: 445:                 ret = lcd_4_send_command(lcd , ((
      +                          0X94) + column));
  2887   0022C4  C020  F01D         	movff	lcd_4bit_set_cursor@lcd,lcd_4_send_command@lcd
  2888   0022C8  5022               	movf	lcd_4bit_set_cursor@column^0,w,c
  2889   0022CA  0F94               	addlw	148
  2890   0022CC  6E1E               	movwf	lcd_4_send_command@command^0,c
  2891   0022CE  ECD8  F016         	call	_lcd_4_send_command	;wreg free
  2892   0022D2  6E25               	movwf	lcd_4bit_set_cursor@ret^0,c
  2893                           
  2894                           ;ECU_Layer/Chr_LCD/ecu_chr_lcd.c: 446:                 break;
  2895   0022D4  EF93  F011         	goto	l4571
  2896   0022D8                     l4565:
  2897                           
  2898                           ;ECU_Layer/Chr_LCD/ecu_chr_lcd.c: 448:                 ret = lcd_4_send_command(lcd , ((
      +                          0XD4) + column));
  2899   0022D8  C020  F01D         	movff	lcd_4bit_set_cursor@lcd,lcd_4_send_command@lcd
  2900   0022DC  5022               	movf	lcd_4bit_set_cursor@column^0,w,c
  2901   0022DE  0FD4               	addlw	212
  2902   0022E0  6E1E               	movwf	lcd_4_send_command@command^0,c
  2903   0022E2  ECD8  F016         	call	_lcd_4_send_command	;wreg free
  2904   0022E6  6E25               	movwf	lcd_4bit_set_cursor@ret^0,c
  2905                           
  2906                           ;ECU_Layer/Chr_LCD/ecu_chr_lcd.c: 449:                 break;
  2907   0022E8  EF93  F011         	goto	l4571
  2908   0022EC                     l4569:
  2909   0022EC  5021               	movf	lcd_4bit_set_cursor@row^0,w,c
  2910   0022EE  6E23               	movwf	??_lcd_4bit_set_cursor^0,c
  2911   0022F0  6A24               	clrf	(??_lcd_4bit_set_cursor+1)^0,c
  2912                           
  2913                           ; Switch on 2 bytes has been partitioned into a top level switch of size 1, and 1 sub-sw
      +                          itches
  2914                           ; Switch size 1, requested type "simple"
  2915                           ; Number of cases is 1, Range of values is 0 to 0
  2916                           ; switch strategies available:
  2917                           ; Name         Instructions Cycles
  2918                           ; simple_byte            4     3 (average)
  2919                           ;	Chosen strategy is simple_byte
  2920   0022F2  5024               	movf	(??_lcd_4bit_set_cursor+1)^0,w,c
  2921   0022F4  0A00               	xorlw	0	; case 0
  2922   0022F6  B4D8               	btfsc	status,2,c
  2923   0022F8  EF80  F011         	goto	l6867
  2924   0022FC  EF93  F011         	goto	l4571
  2925   002300                     l6867:
  2926                           
  2927                           ; Switch size 1, requested type "simple"
  2928                           ; Number of cases is 4, Range of values is 1 to 4
  2929                           ; switch strategies available:
  2930                           ; Name         Instructions Cycles
  2931                           ; simple_byte           13     7 (average)
  2932                           ;	Chosen strategy is simple_byte
  2933   002300  5023               	movf	??_lcd_4bit_set_cursor^0,w,c
  2934   002302  0A01               	xorlw	1	; case 1
  2935   002304  B4D8               	btfsc	status,2,c
  2936   002306  EF4E  F011         	goto	l4559
  2937   00230A  0A03               	xorlw	3	; case 2
  2938   00230C  B4D8               	btfsc	status,2,c
  2939   00230E  EF58  F011         	goto	l4561
  2940   002312  0A01               	xorlw	1	; case 3
  2941   002314  B4D8               	btfsc	status,2,c
  2942   002316  EF62  F011         	goto	l4563
  2943   00231A  0A07               	xorlw	7	; case 4
  2944   00231C  B4D8               	btfsc	status,2,c
  2945   00231E  EF6C  F011         	goto	l4565
  2946   002322  EF93  F011         	goto	l4571
  2947   002326                     l4571:
  2948                           
  2949                           ;ECU_Layer/Chr_LCD/ecu_chr_lcd.c: 454:     return ret ;
  2950   002326  5025               	movf	lcd_4bit_set_cursor@ret^0,w,c
  2951   002328  0012               	return		;funcret
  2952   00232A                     __end_of_lcd_4bit_set_cursor:
  2953                           	callstack 0
  2954                           
  2955 ;; *************** function _lcd_4_send_char_data *****************
  2956 ;; Defined at:
  2957 ;;		line 63 in file "ECU_Layer/Chr_LCD/ecu_chr_lcd.c"
  2958 ;; Parameters:    Size  Location     Type
  2959 ;;  lcd             1   28[COMRAM] PTR struct .
  2960 ;;		 -> lcd_1(6), 
  2961 ;;  data            1   29[COMRAM] unsigned char 
  2962 ;; Auto vars:     Size  Location     Type
  2963 ;;  ret             1   30[COMRAM] unsigned char 
  2964 ;; Return value:  Size  Location     Type
  2965 ;;                  1    wreg      unsigned char 
  2966 ;; Registers used:
  2967 ;;		wreg, fsr2l, fsr2h, status,2, status,0, prodl, prodh, cstack
  2968 ;; Tracked objects:
  2969 ;;		On entry : 0/0
  2970 ;;		On exit  : 0/0
  2971 ;;		Unchanged: 0/0
  2972 ;; Data sizes:     COMRAM   BANK0   BANK1   BANK2   BANK3   BANK4   BANK5   BANK6   BANK7   BANK8   BANK9  BANK10  BANK1
      +1  BANK12  BANK13  BANK14  BANK15
  2973 ;;      Params:         2       0       0       0       0       0       0       0       0       0       0       0       
      +0       0       0       0       0
  2974 ;;      Locals:         1       0       0       0       0       0       0       0       0       0       0       0       
      +0       0       0       0       0
  2975 ;;      Temps:          0       0       0       0       0       0       0       0       0       0       0       0       
      +0       0       0       0       0
  2976 ;;      Totals:         3       0       0       0       0       0       0       0       0       0       0       0       
      +0       0       0       0       0
  2977 ;;Total ram usage:        3 bytes
  2978 ;; Hardware stack levels used: 1
  2979 ;; Hardware stack levels required when called: 7
  2980 ;; This function calls:
  2981 ;;		_gpio_pin_write_logic
  2982 ;;		_lcd_4bit_send_enable_signale
  2983 ;;		_lcd_send_4bit
  2984 ;; This function is called by:
  2985 ;;		_lcd_4_send_string_position
  2986 ;;		_lcd_4_send_char_data_position
  2987 ;;		_lcd_4_send_string
  2988 ;; This function uses a non-reentrant model
  2989 ;;
  2990                           
  2991                           	psect	text6
  2992   002D54                     __ptext6:
  2993                           	callstack 0
  2994   002D54                     _lcd_4_send_char_data:
  2995                           	callstack 22
  2996   002D54                     
  2997                           ;ECU_Layer/Chr_LCD/ecu_chr_lcd.c: 66:     if(((void*)0) == lcd)
  2998   002D54  501D               	movf	lcd_4_send_char_data@lcd^0,w,c
  2999   002D56  A4D8               	btfss	status,2,c
  3000   002D58  EFB0  F016         	goto	u3441
  3001   002D5C  EFB2  F016         	goto	u3440
  3002   002D60                     u3441:
  3003   002D60  EFB6  F016         	goto	l4547
  3004   002D64                     u3440:
  3005   002D64                     
  3006                           ;ECU_Layer/Chr_LCD/ecu_chr_lcd.c: 67:         ret = (std_ReturneType)0x00 ;
  3007   002D64  0E00               	movlw	0
  3008   002D66  6E1F               	movwf	lcd_4_send_char_data@ret^0,c
  3009   002D68  EFD6  F016         	goto	l4549
  3010   002D6C                     l4547:
  3011                           
  3012                           ;ECU_Layer/Chr_LCD/ecu_chr_lcd.c: 69:     {;ECU_Layer/Chr_LCD/ecu_chr_lcd.c: 70:        
      +                           ret = gpio_pin_write_logic(&(lcd->lcd_rs) , HIGH);
  3013   002D6C  C01D  F012         	movff	lcd_4_send_char_data@lcd,gpio_pin_write_logic@_pin_config
  3014   002D70  0E01               	movlw	1
  3015   002D72  6E13               	movwf	gpio_pin_write_logic@logic^0,c
  3016   002D74  EC8A  F00E         	call	_gpio_pin_write_logic	;wreg free
  3017   002D78  6E1F               	movwf	lcd_4_send_char_data@ret^0,c
  3018                           
  3019                           ;ECU_Layer/Chr_LCD/ecu_chr_lcd.c: 71:         ret = lcd_send_4bit(lcd , data >> 4);
  3020   002D7A  C01D  F01A         	movff	lcd_4_send_char_data@lcd,lcd_send_4bit@lcd
  3021   002D7E  381E               	swapf	lcd_4_send_char_data@data^0,w,c
  3022   002D80  0B0F               	andlw	15
  3023   002D82  6E1B               	movwf	lcd_send_4bit@command^0,c
  3024   002D84  ECC8  F014         	call	_lcd_send_4bit	;wreg free
  3025   002D88  6E1F               	movwf	lcd_4_send_char_data@ret^0,c
  3026                           
  3027                           ;ECU_Layer/Chr_LCD/ecu_chr_lcd.c: 72:         ret = lcd_4bit_send_enable_signale(lcd);
  3028   002D8A  C01D  F01A         	movff	lcd_4_send_char_data@lcd,lcd_4bit_send_enable_signale@lcd
  3029   002D8E  EC9E  F017         	call	_lcd_4bit_send_enable_signale	;wreg free
  3030   002D92  6E1F               	movwf	lcd_4_send_char_data@ret^0,c
  3031                           
  3032                           ;ECU_Layer/Chr_LCD/ecu_chr_lcd.c: 73:         ret = lcd_send_4bit(lcd , data);
  3033   002D94  C01D  F01A         	movff	lcd_4_send_char_data@lcd,lcd_send_4bit@lcd
  3034   002D98  C01E  F01B         	movff	lcd_4_send_char_data@data,lcd_send_4bit@command
  3035   002D9C  ECC8  F014         	call	_lcd_send_4bit	;wreg free
  3036   002DA0  6E1F               	movwf	lcd_4_send_char_data@ret^0,c
  3037                           
  3038                           ;ECU_Layer/Chr_LCD/ecu_chr_lcd.c: 74:         ret = lcd_4bit_send_enable_signale(lcd);
  3039   002DA2  C01D  F01A         	movff	lcd_4_send_char_data@lcd,lcd_4bit_send_enable_signale@lcd
  3040   002DA6  EC9E  F017         	call	_lcd_4bit_send_enable_signale	;wreg free
  3041   002DAA  6E1F               	movwf	lcd_4_send_char_data@ret^0,c
  3042   002DAC                     l4549:
  3043                           
  3044                           ;ECU_Layer/Chr_LCD/ecu_chr_lcd.c: 76:     return ret ;
  3045   002DAC  501F               	movf	lcd_4_send_char_data@ret^0,w,c
  3046   002DAE  0012               	return		;funcret
  3047   002DB0                     __end_of_lcd_4_send_char_data:
  3048                           	callstack 0
  3049                           
  3050 ;; *************** function _keypad_get_value *****************
  3051 ;; Defined at:
  3052 ;;		line 35 in file "ECU_Layer/KeyPad/ecu_Keypad.c"
  3053 ;; Parameters:    Size  Location     Type
  3054 ;;  _keypad_obj     1   25[COMRAM] PTR const struct .
  3055 ;;		 -> KeyPad1(8), 
  3056 ;;  value           1   26[COMRAM] PTR unsigned char 
  3057 ;;		 -> value(1), 
  3058 ;; Auto vars:     Size  Location     Type
  3059 ;;  columns_coun    1   32[COMRAM] unsigned char 
  3060 ;;  rows_counter    1   31[COMRAM] unsigned char 
  3061 ;;  counter         1   30[COMRAM] unsigned char 
  3062 ;;  cloumn_logic    1   29[COMRAM] unsigned char 
  3063 ;;  ret             1   28[COMRAM] unsigned char 
  3064 ;; Return value:  Size  Location     Type
  3065 ;;                  1    wreg      unsigned char 
  3066 ;; Registers used:
  3067 ;;		wreg, fsr1l, fsr1h, fsr2l, fsr2h, status,2, status,0, tblptrl, tblptrh, tblptru, prodl, prodh, cstack
  3068 ;; Tracked objects:
  3069 ;;		On entry : 0/0
  3070 ;;		On exit  : 0/0
  3071 ;;		Unchanged: 0/0
  3072 ;; Data sizes:     COMRAM   BANK0   BANK1   BANK2   BANK3   BANK4   BANK5   BANK6   BANK7   BANK8   BANK9  BANK10  BANK1
      +1  BANK12  BANK13  BANK14  BANK15
  3073 ;;      Params:         2       0       0       0       0       0       0       0       0       0       0       0       
      +0       0       0       0       0
  3074 ;;      Locals:         5       0       0       0       0       0       0       0       0       0       0       0       
      +0       0       0       0       0
  3075 ;;      Temps:          1       0       0       0       0       0       0       0       0       0       0       0       
      +0       0       0       0       0
  3076 ;;      Totals:         8       0       0       0       0       0       0       0       0       0       0       0       
      +0       0       0       0       0
  3077 ;;Total ram usage:        8 bytes
  3078 ;; Hardware stack levels used: 1
  3079 ;; Hardware stack levels required when called: 6
  3080 ;; This function calls:
  3081 ;;		_gpio_pin_read_logic
  3082 ;;		_gpio_pin_write_logic
  3083 ;; This function is called by:
  3084 ;;		_main
  3085 ;; This function uses a non-reentrant model
  3086 ;;
  3087                           
  3088                           	psect	text7
  3089   001F2A                     __ptext7:
  3090                           	callstack 0
  3091   001F2A                     _keypad_get_value:
  3092                           	callstack 24
  3093   001F2A                     
  3094                           ;ECU_Layer/KeyPad/ecu_Keypad.c: 38:     uint8 rows_counter = 0 , columns_counter = 0 , c
      +                          ounter = 0 , cloumn_logic = 0 ;
  3095   001F2A  0E00               	movlw	0
  3096   001F2C  6E20               	movwf	keypad_get_value@rows_counter^0,c
  3097   001F2E  0E00               	movlw	0
  3098   001F30  6E21               	movwf	keypad_get_value@columns_counter^0,c
  3099   001F32  0E00               	movlw	0
  3100   001F34  6E1F               	movwf	keypad_get_value@counter^0,c
  3101   001F36  0E00               	movlw	0
  3102   001F38  6E1E               	movwf	keypad_get_value@cloumn_logic^0,c
  3103                           
  3104                           ;ECU_Layer/KeyPad/ecu_Keypad.c: 39:     if((((void*)0) == _keypad_obj) || (((void*)0) ==
      +                           value))
  3105   001F3A  501A               	movf	keypad_get_value@_keypad_obj^0,w,c
  3106   001F3C  B4D8               	btfsc	status,2,c
  3107   001F3E  EFA3  F00F         	goto	u3751
  3108   001F42  EFA5  F00F         	goto	u3750
  3109   001F46                     u3751:
  3110   001F46  EFAD  F00F         	goto	l4873
  3111   001F4A                     u3750:
  3112   001F4A  501B               	movf	keypad_get_value@value^0,w,c
  3113   001F4C  A4D8               	btfss	status,2,c
  3114   001F4E  EFAB  F00F         	goto	u3761
  3115   001F52  EFAD  F00F         	goto	u3760
  3116   001F56                     u3761:
  3117   001F56  EFB1  F00F         	goto	l4875
  3118   001F5A                     u3760:
  3119   001F5A                     l4873:
  3120                           
  3121                           ;ECU_Layer/KeyPad/ecu_Keypad.c: 40:         ret = (std_ReturneType)0x00 ;
  3122   001F5A  0E00               	movlw	0
  3123   001F5C  6E1D               	movwf	keypad_get_value@ret^0,c
  3124   001F5E  EF09  F010         	goto	l4917
  3125   001F62                     l4875:
  3126                           
  3127                           ;ECU_Layer/KeyPad/ecu_Keypad.c: 42:     {;ECU_Layer/KeyPad/ecu_Keypad.c: 43:         for
      +                          (rows_counter = 0 ; rows_counter < 4 ; rows_counter++)
  3128   001F62  0E00               	movlw	0
  3129   001F64  6E20               	movwf	keypad_get_value@rows_counter^0,c
  3130   001F66                     l4881:
  3131                           
  3132                           ;ECU_Layer/KeyPad/ecu_Keypad.c: 44:         {;ECU_Layer/KeyPad/ecu_Keypad.c: 45:        
      +                               for(counter = 0 ; counter < 4 ; counter++)
  3133   001F66  0E00               	movlw	0
  3134   001F68  6E1F               	movwf	keypad_get_value@counter^0,c
  3135   001F6A                     l4887:
  3136   001F6A  501A               	movf	keypad_get_value@_keypad_obj^0,w,c
  3137   001F6C  241F               	addwf	keypad_get_value@counter^0,w,c
  3138   001F6E  6E12               	movwf	gpio_pin_write_logic@_pin_config^0,c
  3139   001F70  0E00               	movlw	0
  3140   001F72  6E13               	movwf	gpio_pin_write_logic@logic^0,c
  3141   001F74  EC8A  F00E         	call	_gpio_pin_write_logic	;wreg free
  3142   001F78                     
  3143                           ;ECU_Layer/KeyPad/ecu_Keypad.c: 48:             }
  3144   001F78  2A1F               	incf	keypad_get_value@counter^0,f,c
  3145   001F7A  0E03               	movlw	3
  3146   001F7C  641F               	cpfsgt	keypad_get_value@counter^0,c
  3147   001F7E  EFC3  F00F         	goto	u3771
  3148   001F82  EFC5  F00F         	goto	u3770
  3149   001F86                     u3771:
  3150   001F86  EFB5  F00F         	goto	l4887
  3151   001F8A                     u3770:
  3152   001F8A  501A               	movf	keypad_get_value@_keypad_obj^0,w,c
  3153   001F8C  2420               	addwf	keypad_get_value@rows_counter^0,w,c
  3154   001F8E  6E12               	movwf	gpio_pin_write_logic@_pin_config^0,c
  3155   001F90  0E01               	movlw	1
  3156   001F92  6E13               	movwf	gpio_pin_write_logic@logic^0,c
  3157   001F94  EC8A  F00E         	call	_gpio_pin_write_logic	;wreg free
  3158   001F98                     
  3159                           ;ECU_Layer/KeyPad/ecu_Keypad.c: 50:             _delay((unsigned long)((50)*(8000000/400
      +                          0.0)));
  3160   001F98  0E82               	movlw	130
  3161   001F9A  6E1C               	movwf	??_keypad_get_value^0,c
  3162   001F9C  0EDE               	movlw	222
  3163   001F9E                     u6187:
  3164   001F9E  2EE8               	decfsz	wreg,f,c
  3165   001FA0  D7FE               	bra	u6187
  3166   001FA2  2E1C               	decfsz	??_keypad_get_value^0,f,c
  3167   001FA4  D7FC               	bra	u6187
  3168   001FA6                     
  3169                           ;ECU_Layer/KeyPad/ecu_Keypad.c: 51:             for(columns_counter = 0 ; columns_counte
      +                          r < 4 ; columns_counter++)
  3170   001FA6  0E00               	movlw	0
  3171   001FA8  6E21               	movwf	keypad_get_value@columns_counter^0,c
  3172   001FAA                     l4903:
  3173                           
  3174                           ;ECU_Layer/KeyPad/ecu_Keypad.c: 52:             {;ECU_Layer/KeyPad/ecu_Keypad.c: 53:    
      +                                       ret = gpio_pin_read_logic(&(_keypad_obj->keypad_columns_pins[columns_counte
      +                          r]) , &cloumn_logic);
  3175   001FAA  501A               	movf	keypad_get_value@_keypad_obj^0,w,c
  3176   001FAC  2421               	addwf	keypad_get_value@columns_counter^0,w,c
  3177   001FAE  0F04               	addlw	4
  3178   001FB0  6E12               	movwf	gpio_pin_read_logic@_pin_config^0,c
  3179   001FB2  0E1E               	movlw	low keypad_get_value@cloumn_logic
  3180   001FB4  6E13               	movwf	gpio_pin_read_logic@logic^0,c
  3181   001FB6  ECED  F011         	call	_gpio_pin_read_logic	;wreg free
  3182   001FBA  6E1D               	movwf	keypad_get_value@ret^0,c
  3183   001FBC                     
  3184                           ;ECU_Layer/KeyPad/ecu_Keypad.c: 54:                 if(HIGH == cloumn_logic)
  3185   001FBC  041E               	decf	keypad_get_value@cloumn_logic^0,w,c
  3186   001FBE  A4D8               	btfss	status,2,c
  3187   001FC0  EFE4  F00F         	goto	u3781
  3188   001FC4  EFE6  F00F         	goto	u3780
  3189   001FC8                     u3781:
  3190   001FC8  EFF7  F00F         	goto	l4909
  3191   001FCC                     u3780:
  3192   001FCC                     
  3193                           ;ECU_Layer/KeyPad/ecu_Keypad.c: 55:                 {;ECU_Layer/KeyPad/ecu_Keypad.c: 56:
      +                                               *value = btn_values[rows_counter][columns_counter];
  3194   001FCC  5020               	movf	keypad_get_value@rows_counter^0,w,c
  3195   001FCE  0D04               	mullw	4
  3196   001FD0  50F3               	movf	243,w,c
  3197   001FD2  0F01               	addlw	low _btn_values
  3198   001FD4  2421               	addwf	keypad_get_value@columns_counter^0,w,c
  3199   001FD6  6E1C               	movwf	??_keypad_get_value^0,c
  3200   001FD8  C01C  FFF6         	movff	??_keypad_get_value,tblptrl
  3201   001FDC                     	if	1	;There is more than 1 active tblptr byte
  3202   001FDC  0E10               	movlw	high __smallconst
  3203   001FDE  6EF7               	movwf	tblptrh,c
  3204   001FE0                     	endif
  3205   001FE0                     	if	1	;Program memory is < 0x10000, tblptru is always zero
  3206   001FE0  6AF8               	clrf	tblptru,c
  3207   001FE2                     	endif
  3208   001FE2                     	if	0	;tblptru may be non-zero
  3209   001FE2                     	endif
  3210   001FE2  501B               	movf	keypad_get_value@value^0,w,c
  3211   001FE4  6ED9               	movwf	fsr2l,c
  3212   001FE6  6ADA               	clrf	fsr2h,c
  3213   001FE8  0008               	tblrd		*
  3214   001FEA  CFF5 FFDF          	movff	tablat,indf2
  3215   001FEE                     l4909:
  3216                           
  3217                           ;ECU_Layer/KeyPad/ecu_Keypad.c: 58:             }
  3218   001FEE  2A21               	incf	keypad_get_value@columns_counter^0,f,c
  3219   001FF0  0E03               	movlw	3
  3220   001FF2  6421               	cpfsgt	keypad_get_value@columns_counter^0,c
  3221   001FF4  EFFE  F00F         	goto	u3791
  3222   001FF8  EF00  F010         	goto	u3790
  3223   001FFC                     u3791:
  3224   001FFC  EFD5  F00F         	goto	l4903
  3225   002000                     u3790:
  3226   002000                     
  3227                           ;ECU_Layer/KeyPad/ecu_Keypad.c: 59:         }
  3228   002000  2A20               	incf	keypad_get_value@rows_counter^0,f,c
  3229   002002  0E03               	movlw	3
  3230   002004  6420               	cpfsgt	keypad_get_value@rows_counter^0,c
  3231   002006  EF07  F010         	goto	u3801
  3232   00200A  EF09  F010         	goto	u3800
  3233   00200E                     u3801:
  3234   00200E  EFB3  F00F         	goto	l4881
  3235   002012                     u3800:
  3236   002012                     l4917:
  3237                           
  3238                           ;ECU_Layer/KeyPad/ecu_Keypad.c: 61:     return ret ;
  3239   002012  501D               	movf	keypad_get_value@ret^0,w,c
  3240   002014  0012               	return		;funcret
  3241   002016                     __end_of_keypad_get_value:
  3242                           	callstack 0
  3243                           
  3244 ;; *************** function _gpio_pin_read_logic *****************
  3245 ;; Defined at:
  3246 ;;		line 90 in file "MCAL_Layer/GPIO/hal_gpio.c"
  3247 ;; Parameters:    Size  Location     Type
  3248 ;;  _pin_config     1   17[COMRAM] PTR const struct .
  3249 ;;		 -> KeyPad1$keypad_columns_pins(4), KeyPad1(8), 
  3250 ;;  logic           1   18[COMRAM] PTR unsigned char 
  3251 ;;		 -> keypad_get_value@cloumn_logic(1), button_read_status@pin_logic(1), 
  3252 ;; Auto vars:     Size  Location     Type
  3253 ;;  ret             1   23[COMRAM] unsigned char 
  3254 ;; Return value:  Size  Location     Type
  3255 ;;                  1    wreg      unsigned char 
  3256 ;; Registers used:
  3257 ;;		wreg, fsr1l, fsr1h, fsr2l, fsr2h, status,2, status,0, prodl, prodh
  3258 ;; Tracked objects:
  3259 ;;		On entry : 0/0
  3260 ;;		On exit  : 0/0
  3261 ;;		Unchanged: 0/0
  3262 ;; Data sizes:     COMRAM   BANK0   BANK1   BANK2   BANK3   BANK4   BANK5   BANK6   BANK7   BANK8   BANK9  BANK10  BANK1
      +1  BANK12  BANK13  BANK14  BANK15
  3263 ;;      Params:         2       0       0       0       0       0       0       0       0       0       0       0       
      +0       0       0       0       0
  3264 ;;      Locals:         1       0       0       0       0       0       0       0       0       0       0       0       
      +0       0       0       0       0
  3265 ;;      Temps:          4       0       0       0       0       0       0       0       0       0       0       0       
      +0       0       0       0       0
  3266 ;;      Totals:         7       0       0       0       0       0       0       0       0       0       0       0       
      +0       0       0       0       0
  3267 ;;Total ram usage:        7 bytes
  3268 ;; Hardware stack levels used: 1
  3269 ;; Hardware stack levels required when called: 5
  3270 ;; This function calls:
  3271 ;;		Nothing
  3272 ;; This function is called by:
  3273 ;;		_keypad_get_value
  3274 ;;		_button_read_status
  3275 ;; This function uses a non-reentrant model
  3276 ;;
  3277                           
  3278                           	psect	text8
  3279   0023DA                     __ptext8:
  3280                           	callstack 0
  3281   0023DA                     _gpio_pin_read_logic:
  3282                           	callstack 24
  3283   0023DA                     
  3284                           ;MCAL_Layer/GPIO/hal_gpio.c: 90: std_ReturneType gpio_pin_read_logic(const pin_config_t 
      +                          *_pin_config , uint8 *logic);MCAL_Layer/GPIO/hal_gpio.c: 91: {;MCAL_Layer/GPIO/hal_gpio.
      +                          c: 92:     std_ReturneType ret = (std_ReturneType)0x01 ;
  3285   0023DA  0E01               	movlw	1
  3286   0023DC  6E18               	movwf	gpio_pin_read_logic@ret^0,c
  3287                           
  3288                           ;MCAL_Layer/GPIO/hal_gpio.c: 93:     if((_pin_config == ((void*)0)) || (logic == ((void*
      +                          )0)) || (_pin_config->pin > 8 -1))
  3289   0023DE  5012               	movf	gpio_pin_read_logic@_pin_config^0,w,c
  3290   0023E0  B4D8               	btfsc	status,2,c
  3291   0023E2  EFF5  F011         	goto	u3381
  3292   0023E6  EFF7  F011         	goto	u3380
  3293   0023EA                     u3381:
  3294   0023EA  EF0F  F012         	goto	l4491
  3295   0023EE                     u3380:
  3296   0023EE  5013               	movf	gpio_pin_read_logic@logic^0,w,c
  3297   0023F0  B4D8               	btfsc	status,2,c
  3298   0023F2  EFFD  F011         	goto	u3391
  3299   0023F6  EFFF  F011         	goto	u3390
  3300   0023FA                     u3391:
  3301   0023FA  EF0F  F012         	goto	l4491
  3302   0023FE                     u3390:
  3303   0023FE  5012               	movf	gpio_pin_read_logic@_pin_config^0,w,c
  3304   002400  6ED9               	movwf	fsr2l,c
  3305   002402  6ADA               	clrf	fsr2h,c
  3306   002404  30DF               	rrcf	223,w,c
  3307   002406  32E8               	rrcf	wreg,f,c
  3308   002408  32E8               	rrcf	wreg,f,c
  3309   00240A  0B07               	andlw	7
  3310   00240C  6E14               	movwf	??_gpio_pin_read_logic^0,c
  3311   00240E  0E07               	movlw	7
  3312   002410  6414               	cpfsgt	??_gpio_pin_read_logic^0,c
  3313   002412  EF0D  F012         	goto	u3401
  3314   002416  EF0F  F012         	goto	u3400
  3315   00241A                     u3401:
  3316   00241A  EF13  F012         	goto	l4493
  3317   00241E                     u3400:
  3318   00241E                     l4491:
  3319                           
  3320                           ;MCAL_Layer/GPIO/hal_gpio.c: 94:         ret = (std_ReturneType)0x00 ;
  3321   00241E  0E00               	movlw	0
  3322   002420  6E18               	movwf	gpio_pin_read_logic@ret^0,c
  3323   002422  EF3D  F012         	goto	l4495
  3324   002426                     l4493:
  3325                           
  3326                           ;MCAL_Layer/GPIO/hal_gpio.c: 96:     {;MCAL_Layer/GPIO/hal_gpio.c: 97:         *logic = 
      +                          (((*((volatile uint8 *)(port_register[_pin_config->port]))) >> _pin_config->pin) & (uint
      +                          8)1);
  3327   002426  5013               	movf	gpio_pin_read_logic@logic^0,w,c
  3328   002428  6ED9               	movwf	fsr2l,c
  3329   00242A  6ADA               	clrf	fsr2h,c
  3330   00242C  5012               	movf	gpio_pin_read_logic@_pin_config^0,w,c
  3331   00242E  6EE1               	movwf	fsr1l,c
  3332   002430  6AE2               	clrf	fsr1h,c
  3333   002432  30E7               	rrcf	231,w,c
  3334   002434  32E8               	rrcf	wreg,f,c
  3335   002436  32E8               	rrcf	wreg,f,c
  3336   002438  0B07               	andlw	7
  3337   00243A  6E14               	movwf	??_gpio_pin_read_logic^0,c
  3338   00243C  5012               	movf	gpio_pin_read_logic@_pin_config^0,w,c
  3339   00243E  6EE1               	movwf	fsr1l,c
  3340   002440  6AE2               	clrf	fsr1h,c
  3341   002442  50E7               	movf	231,w,c
  3342   002444  0B07               	andlw	7
  3343   002446  0D02               	mullw	2
  3344   002448  50F3               	movf	243,w,c
  3345   00244A  0F80               	addlw	low _port_register
  3346   00244C  6EE1               	movwf	fsr1l,c
  3347   00244E  6AE2               	clrf	fsr1h,c
  3348   002450  CFE6 F015          	movff	postinc1,??_gpio_pin_read_logic+1
  3349   002454  CFE5 F016          	movff	postdec1,??_gpio_pin_read_logic+2
  3350   002458  C015  FFE1         	movff	??_gpio_pin_read_logic+1,fsr1l
  3351   00245C  C016  FFE2         	movff	??_gpio_pin_read_logic+2,fsr1h
  3352   002460  50E7               	movf	indf1,w,c
  3353   002462  6E17               	movwf	(??_gpio_pin_read_logic+3)^0,c
  3354   002464  2A14               	incf	??_gpio_pin_read_logic^0,f,c
  3355   002466  EF37  F012         	goto	u3414
  3356   00246A                     u3415:
  3357   00246A  90D8               	bcf	status,0,c
  3358   00246C  3217               	rrcf	(??_gpio_pin_read_logic+3)^0,f,c
  3359   00246E                     u3414:
  3360   00246E  2E14               	decfsz	??_gpio_pin_read_logic^0,f,c
  3361   002470  EF35  F012         	goto	u3415
  3362   002474  5017               	movf	(??_gpio_pin_read_logic+3)^0,w,c
  3363   002476  0B01               	andlw	1
  3364   002478  6EDF               	movwf	indf2,c
  3365   00247A                     l4495:
  3366                           
  3367                           ;MCAL_Layer/GPIO/hal_gpio.c: 99:     return ret ;
  3368   00247A  5018               	movf	gpio_pin_read_logic@ret^0,w,c
  3369   00247C  0012               	return		;funcret
  3370   00247E                     __end_of_gpio_pin_read_logic:
  3371                           	callstack 0
  3372                           
  3373 ;; *************** function _ecu_layer_initialize *****************
  3374 ;; Defined at:
  3375 ;;		line 324 in file "ECU_Layer/ecu_layer_initialize.c"
  3376 ;; Parameters:    Size  Location     Type
  3377 ;;		None
  3378 ;; Auto vars:     Size  Location     Type
  3379 ;;  ret             1    0        unsigned char 
  3380 ;; Return value:  Size  Location     Type
  3381 ;;                  1    wreg      void 
  3382 ;; Registers used:
  3383 ;;		wreg, fsr2l, fsr2h, status,2, status,0, prodl, prodh, cstack
  3384 ;; Tracked objects:
  3385 ;;		On entry : 0/0
  3386 ;;		On exit  : 0/0
  3387 ;;		Unchanged: 0/0
  3388 ;; Data sizes:     COMRAM   BANK0   BANK1   BANK2   BANK3   BANK4   BANK5   BANK6   BANK7   BANK8   BANK9  BANK10  BANK1
      +1  BANK12  BANK13  BANK14  BANK15
  3389 ;;      Params:         0       0       0       0       0       0       0       0       0       0       0       0       
      +0       0       0       0       0
  3390 ;;      Locals:         0       0       0       0       0       0       0       0       0       0       0       0       
      +0       0       0       0       0
  3391 ;;      Temps:          0       0       0       0       0       0       0       0       0       0       0       0       
      +0       0       0       0       0
  3392 ;;      Totals:         0       0       0       0       0       0       0       0       0       0       0       0       
      +0       0       0       0       0
  3393 ;;Total ram usage:        0 bytes
  3394 ;; Hardware stack levels used: 1
  3395 ;; Hardware stack levels required when called: 9
  3396 ;; This function calls:
  3397 ;;		_dc_motor_intialize
  3398 ;;		_keypad_intialize
  3399 ;;		_lcd_4_intialize
  3400 ;;		_led_initialize
  3401 ;; This function is called by:
  3402 ;;		_main
  3403 ;; This function uses a non-reentrant model
  3404 ;;
  3405                           
  3406                           	psect	text9
  3407   003184                     __ptext9:
  3408                           	callstack 0
  3409   003184                     _ecu_layer_initialize:
  3410                           	callstack 21
  3411   003184  0E68               	movlw	low _motor_1
  3412   003186  6E19               	movwf	dc_motor_intialize@_dc_motor^0,c
  3413   003188  EC17  F018         	call	_dc_motor_intialize	;wreg free
  3414   00318C  0E6C               	movlw	low _led_green
  3415   00318E  6E19               	movwf	led_initialize@led^0,c
  3416   003190  EC73  F015         	call	_led_initialize	;wreg free
  3417   003194  0E6D               	movlw	low _led_red
  3418   003196  6E19               	movwf	led_initialize@led^0,c
  3419   003198  EC73  F015         	call	_led_initialize	;wreg free
  3420   00319C  0E62               	movlw	low _lcd_1
  3421   00319E  6E20               	movwf	lcd_4_intialize@lcd^0,c
  3422   0031A0  EC0B  F010         	call	_lcd_4_intialize	;wreg free
  3423   0031A4  0EE3               	movlw	low _KeyPad1
  3424   0031A6  6E1D               	movwf	keypad_intialize@_keypad_obj^0,c
  3425   0031A8  EC14  F016         	call	_keypad_intialize	;wreg free
  3426   0031AC  0012               	return		;funcret
  3427   0031AE                     __end_of_ecu_layer_initialize:
  3428                           	callstack 0
  3429                           
  3430 ;; *************** function _led_initialize *****************
  3431 ;; Defined at:
  3432 ;;		line 11 in file "ECU_Layer/LED/ecu_led.c"
  3433 ;; Parameters:    Size  Location     Type
  3434 ;;  led             1   24[COMRAM] PTR const struct .
  3435 ;;		 -> led_red(1), led_green(1), 
  3436 ;; Auto vars:     Size  Location     Type
  3437 ;;  pin_obj         1   27[COMRAM] struct .
  3438 ;;  ret             1   26[COMRAM] unsigned char 
  3439 ;; Return value:  Size  Location     Type
  3440 ;;                  1    wreg      unsigned char 
  3441 ;; Registers used:
  3442 ;;		wreg, fsr2l, fsr2h, status,2, status,0, prodl, prodh, cstack
  3443 ;; Tracked objects:
  3444 ;;		On entry : 0/0
  3445 ;;		On exit  : 0/0
  3446 ;;		Unchanged: 0/0
  3447 ;; Data sizes:     COMRAM   BANK0   BANK1   BANK2   BANK3   BANK4   BANK5   BANK6   BANK7   BANK8   BANK9  BANK10  BANK1
      +1  BANK12  BANK13  BANK14  BANK15
  3448 ;;      Params:         1       0       0       0       0       0       0       0       0       0       0       0       
      +0       0       0       0       0
  3449 ;;      Locals:         2       0       0       0       0       0       0       0       0       0       0       0       
      +0       0       0       0       0
  3450 ;;      Temps:          1       0       0       0       0       0       0       0       0       0       0       0       
      +0       0       0       0       0
  3451 ;;      Totals:         4       0       0       0       0       0       0       0       0       0       0       0       
      +0       0       0       0       0
  3452 ;;Total ram usage:        4 bytes
  3453 ;; Hardware stack levels used: 1
  3454 ;; Hardware stack levels required when called: 6
  3455 ;; This function calls:
  3456 ;;		_gpio_pin_direction_intialize
  3457 ;; This function is called by:
  3458 ;;		_ecu_layer_initialize
  3459 ;; This function uses a non-reentrant model
  3460 ;;
  3461                           
  3462                           	psect	text10
  3463   002AE6                     __ptext10:
  3464                           	callstack 0
  3465   002AE6                     _led_initialize:
  3466                           	callstack 23
  3467   002AE6                     
  3468                           ;ECU_Layer/LED/ecu_led.c: 14:     pin_config_t pin_obj = {.port = led->port_name
  3469   002AE6  C058  F01C         	movff	led_initialize@F3479,led_initialize@pin_obj
  3470   002AEA  5019               	movf	led_initialize@led^0,w,c
  3471   002AEC  6ED9               	movwf	fsr2l,c
  3472   002AEE  6ADA               	clrf	fsr2h,c
  3473   002AF0  50DF               	movf	223,w,c
  3474   002AF2  0B0F               	andlw	15
  3475   002AF4  6E1A               	movwf	??_led_initialize^0,c
  3476   002AF6  501C               	movf	led_initialize@pin_obj^0,w,c
  3477   002AF8  181A               	xorwf	??_led_initialize^0,w,c
  3478   002AFA  0BF8               	andlw	-8
  3479   002AFC  181A               	xorwf	??_led_initialize^0,w,c
  3480   002AFE  6E1C               	movwf	led_initialize@pin_obj^0,c
  3481   002B00  5019               	movf	led_initialize@led^0,w,c
  3482   002B02  6ED9               	movwf	fsr2l,c
  3483   002B04  6ADA               	clrf	fsr2h,c
  3484   002B06  38DF               	swapf	223,w,c
  3485   002B08  0B07               	andlw	7
  3486   002B0A  6E1A               	movwf	??_led_initialize^0,c
  3487   002B0C  461A               	rlncf	??_led_initialize^0,f,c
  3488   002B0E  461A               	rlncf	??_led_initialize^0,f,c
  3489   002B10  461A               	rlncf	??_led_initialize^0,f,c
  3490   002B12  501C               	movf	led_initialize@pin_obj^0,w,c
  3491   002B14  181A               	xorwf	??_led_initialize^0,w,c
  3492   002B16  0BC7               	andlw	-57
  3493   002B18  181A               	xorwf	??_led_initialize^0,w,c
  3494   002B1A  6E1C               	movwf	led_initialize@pin_obj^0,c
  3495   002B1C  9C1C               	bcf	led_initialize@pin_obj^0,6,c
  3496   002B1E  5019               	movf	led_initialize@led^0,w,c
  3497   002B20  6ED9               	movwf	fsr2l,c
  3498   002B22  6ADA               	clrf	fsr2h,c
  3499   002B24  AEDF               	btfss	indf2,7,c
  3500   002B26  D002               	bra	u3585
  3501   002B28  8E1C               	bsf	led_initialize@pin_obj^0,7,c
  3502   002B2A  D001               	bra	u3587
  3503   002B2C                     u3585:
  3504   002B2C  9E1C               	bcf	led_initialize@pin_obj^0,7,c
  3505   002B2E                     u3587:
  3506   002B2E                     
  3507                           ;ECU_Layer/LED/ecu_led.c: 18:     if(((void*)0) == led)
  3508   002B2E  5019               	movf	led_initialize@led^0,w,c
  3509   002B30  A4D8               	btfss	status,2,c
  3510   002B32  EF9D  F015         	goto	u3591
  3511   002B36  EF9F  F015         	goto	u3590
  3512   002B3A                     u3591:
  3513   002B3A  EFA3  F015         	goto	l4713
  3514   002B3E                     u3590:
  3515   002B3E                     
  3516                           ;ECU_Layer/LED/ecu_led.c: 19:         ret = (std_ReturneType)0x00 ;
  3517   002B3E  0E00               	movlw	0
  3518   002B40  6E1B               	movwf	led_initialize@ret^0,c
  3519   002B42  EFA8  F015         	goto	l4715
  3520   002B46                     l4713:
  3521                           
  3522                           ;ECU_Layer/LED/ecu_led.c: 21:     {;ECU_Layer/LED/ecu_led.c: 22:         ret = gpio_pin_
      +                          direction_intialize(&pin_obj);
  3523   002B46  0E1C               	movlw	low led_initialize@pin_obj
  3524   002B48  6E12               	movwf	gpio_pin_direction_intialize@_pin_config^0,c
  3525   002B4A  ECF7  F00D         	call	_gpio_pin_direction_intialize	;wreg free
  3526   002B4E  6E1B               	movwf	led_initialize@ret^0,c
  3527   002B50                     l4715:
  3528                           
  3529                           ;ECU_Layer/LED/ecu_led.c: 25:     return ret ;
  3530   002B50  501B               	movf	led_initialize@ret^0,w,c
  3531   002B52  0012               	return		;funcret
  3532   002B54                     __end_of_led_initialize:
  3533                           	callstack 0
  3534                           
  3535 ;; *************** function _lcd_4_intialize *****************
  3536 ;; Defined at:
  3537 ;;		line 13 in file "ECU_Layer/Chr_LCD/ecu_chr_lcd.c"
  3538 ;; Parameters:    Size  Location     Type
  3539 ;;  lcd             1   31[COMRAM] PTR struct .
  3540 ;;		 -> lcd_1(6), 
  3541 ;; Auto vars:     Size  Location     Type
  3542 ;;  ret             1   34[COMRAM] unsigned char 
  3543 ;;  l_pins          1   33[COMRAM] unsigned char 
  3544 ;; Return value:  Size  Location     Type
  3545 ;;                  1    wreg      unsigned char 
  3546 ;; Registers used:
  3547 ;;		wreg, fsr2l, fsr2h, status,2, status,0, prodl, prodh, cstack
  3548 ;; Tracked objects:
  3549 ;;		On entry : 0/0
  3550 ;;		On exit  : 0/0
  3551 ;;		Unchanged: 0/0
  3552 ;; Data sizes:     COMRAM   BANK0   BANK1   BANK2   BANK3   BANK4   BANK5   BANK6   BANK7   BANK8   BANK9  BANK10  BANK1
      +1  BANK12  BANK13  BANK14  BANK15
  3553 ;;      Params:         1       0       0       0       0       0       0       0       0       0       0       0       
      +0       0       0       0       0
  3554 ;;      Locals:         2       0       0       0       0       0       0       0       0       0       0       0       
      +0       0       0       0       0
  3555 ;;      Temps:          1       0       0       0       0       0       0       0       0       0       0       0       
      +0       0       0       0       0
  3556 ;;      Totals:         4       0       0       0       0       0       0       0       0       0       0       0       
      +0       0       0       0       0
  3557 ;;Total ram usage:        4 bytes
  3558 ;; Hardware stack levels used: 1
  3559 ;; Hardware stack levels required when called: 8
  3560 ;; This function calls:
  3561 ;;		_gpio_pin_intialize
  3562 ;;		_lcd_4_send_command
  3563 ;; This function is called by:
  3564 ;;		_ecu_layer_initialize
  3565 ;; This function uses a non-reentrant model
  3566 ;;
  3567                           
  3568                           	psect	text11
  3569   002016                     __ptext11:
  3570                           	callstack 0
  3571   002016                     _lcd_4_intialize:
  3572                           	callstack 21
  3573   002016                     
  3574                           ;ECU_Layer/Chr_LCD/ecu_chr_lcd.c: 16:     uint8 l_pins = 0 ;
  3575   002016  0E00               	movlw	0
  3576   002018  6E22               	movwf	lcd_4_intialize@l_pins^0,c
  3577                           
  3578                           ;ECU_Layer/Chr_LCD/ecu_chr_lcd.c: 17:     if(((void*)0) == lcd)
  3579   00201A  5020               	movf	lcd_4_intialize@lcd^0,w,c
  3580   00201C  A4D8               	btfss	status,2,c
  3581   00201E  EF13  F010         	goto	u3421
  3582   002022  EF15  F010         	goto	u3420
  3583   002026                     u3421:
  3584   002026  EF19  F010         	goto	l4503
  3585   00202A                     u3420:
  3586   00202A                     
  3587                           ;ECU_Layer/Chr_LCD/ecu_chr_lcd.c: 18:         ret = (std_ReturneType)0x00 ;
  3588   00202A  0E00               	movlw	0
  3589   00202C  6E23               	movwf	lcd_4_intialize@ret^0,c
  3590   00202E  EF7C  F010         	goto	l4539
  3591   002032                     l4503:
  3592                           
  3593                           ;ECU_Layer/Chr_LCD/ecu_chr_lcd.c: 20:     {;ECU_Layer/Chr_LCD/ecu_chr_lcd.c: 21:        
      +                           ret = gpio_pin_intialize(&(lcd->lcd_rs));
  3594   002032  C020  F01A         	movff	lcd_4_intialize@lcd,gpio_pin_intialize@_pin_config
  3595   002036  EC01  F015         	call	_gpio_pin_intialize	;wreg free
  3596   00203A  6E23               	movwf	lcd_4_intialize@ret^0,c
  3597                           
  3598                           ;ECU_Layer/Chr_LCD/ecu_chr_lcd.c: 22:         ret = gpio_pin_intialize(&(lcd->lcd_en));
  3599   00203C  2820               	incf	lcd_4_intialize@lcd^0,w,c
  3600   00203E  6E1A               	movwf	gpio_pin_intialize@_pin_config^0,c
  3601   002040  EC01  F015         	call	_gpio_pin_intialize	;wreg free
  3602   002044  6E23               	movwf	lcd_4_intialize@ret^0,c
  3603   002046                     
  3604                           ;ECU_Layer/Chr_LCD/ecu_chr_lcd.c: 23:         for(l_pins = 0 ; l_pins < 4 ; l_pins++)
  3605   002046  0E00               	movlw	0
  3606   002048  6E22               	movwf	lcd_4_intialize@l_pins^0,c
  3607   00204A                     l4511:
  3608   00204A  5020               	movf	lcd_4_intialize@lcd^0,w,c
  3609   00204C  2422               	addwf	lcd_4_intialize@l_pins^0,w,c
  3610   00204E  0F02               	addlw	2
  3611   002050  6E1A               	movwf	gpio_pin_intialize@_pin_config^0,c
  3612   002052  EC01  F015         	call	_gpio_pin_intialize	;wreg free
  3613   002056                     
  3614                           ;ECU_Layer/Chr_LCD/ecu_chr_lcd.c: 26:         }
  3615   002056  2A22               	incf	lcd_4_intialize@l_pins^0,f,c
  3616   002058  0E03               	movlw	3
  3617   00205A  6422               	cpfsgt	lcd_4_intialize@l_pins^0,c
  3618   00205C  EF32  F010         	goto	u3431
  3619   002060  EF34  F010         	goto	u3430
  3620   002064                     u3431:
  3621   002064  EF25  F010         	goto	l4511
  3622   002068                     u3430:
  3623   002068                     
  3624                           ;ECU_Layer/Chr_LCD/ecu_chr_lcd.c: 27:         _delay((unsigned long)((20)*(8000000/4000.
      +                          0)));
  3625   002068  0E34               	movlw	52
  3626   00206A  6E21               	movwf	??_lcd_4_intialize^0,c
  3627   00206C  0EF2               	movlw	242
  3628   00206E                     u6197:
  3629   00206E  2EE8               	decfsz	wreg,f,c
  3630   002070  D7FE               	bra	u6197
  3631   002072  2E21               	decfsz	??_lcd_4_intialize^0,f,c
  3632   002074  D7FC               	bra	u6197
  3633   002076  C020  F01D         	movff	lcd_4_intialize@lcd,lcd_4_send_command@lcd
  3634   00207A  0E38               	movlw	56
  3635   00207C  6E1E               	movwf	lcd_4_send_command@command^0,c
  3636   00207E  ECD8  F016         	call	_lcd_4_send_command	;wreg free
  3637   002082                     
  3638                           ;ECU_Layer/Chr_LCD/ecu_chr_lcd.c: 29:         _delay((unsigned long)((5)*(8000000/4000.0
      +                          )));
  3639   002082  0E0D               	movlw	13
  3640   002084  6E21               	movwf	??_lcd_4_intialize^0,c
  3641   002086  0EFC               	movlw	252
  3642   002088                     u6207:
  3643   002088  2EE8               	decfsz	wreg,f,c
  3644   00208A  D7FE               	bra	u6207
  3645   00208C  2E21               	decfsz	??_lcd_4_intialize^0,f,c
  3646   00208E  D7FC               	bra	u6207
  3647   002090  C020  F01D         	movff	lcd_4_intialize@lcd,lcd_4_send_command@lcd
  3648   002094  0E38               	movlw	56
  3649   002096  6E1E               	movwf	lcd_4_send_command@command^0,c
  3650   002098  ECD8  F016         	call	_lcd_4_send_command	;wreg free
  3651   00209C                     
  3652                           ;ECU_Layer/Chr_LCD/ecu_chr_lcd.c: 31:         _delay((unsigned long)((150)*(8000000/4000
      +                          000.0)));
  3653   00209C  0E64               	movlw	100
  3654   00209E                     u6217:
  3655   00209E  2EE8               	decfsz	wreg,f,c
  3656   0020A0  D7FE               	bra	u6217
  3657   0020A2  C020  F01D         	movff	lcd_4_intialize@lcd,lcd_4_send_command@lcd
  3658   0020A6  0E38               	movlw	56
  3659   0020A8  6E1E               	movwf	lcd_4_send_command@command^0,c
  3660   0020AA  ECD8  F016         	call	_lcd_4_send_command	;wreg free
  3661   0020AE  C020  F01D         	movff	lcd_4_intialize@lcd,lcd_4_send_command@lcd
  3662   0020B2  0E01               	movlw	1
  3663   0020B4  6E1E               	movwf	lcd_4_send_command@command^0,c
  3664   0020B6  ECD8  F016         	call	_lcd_4_send_command	;wreg free
  3665   0020BA  C020  F01D         	movff	lcd_4_intialize@lcd,lcd_4_send_command@lcd
  3666   0020BE  0E02               	movlw	2
  3667   0020C0  6E1E               	movwf	lcd_4_send_command@command^0,c
  3668   0020C2  ECD8  F016         	call	_lcd_4_send_command	;wreg free
  3669   0020C6  C020  F01D         	movff	lcd_4_intialize@lcd,lcd_4_send_command@lcd
  3670   0020CA  0E06               	movlw	6
  3671   0020CC  6E1E               	movwf	lcd_4_send_command@command^0,c
  3672   0020CE  ECD8  F016         	call	_lcd_4_send_command	;wreg free
  3673   0020D2  C020  F01D         	movff	lcd_4_intialize@lcd,lcd_4_send_command@lcd
  3674   0020D6  0E0C               	movlw	12
  3675   0020D8  6E1E               	movwf	lcd_4_send_command@command^0,c
  3676   0020DA  ECD8  F016         	call	_lcd_4_send_command	;wreg free
  3677   0020DE  C020  F01D         	movff	lcd_4_intialize@lcd,lcd_4_send_command@lcd
  3678   0020E2  0E28               	movlw	40
  3679   0020E4  6E1E               	movwf	lcd_4_send_command@command^0,c
  3680   0020E6  ECD8  F016         	call	_lcd_4_send_command	;wreg free
  3681   0020EA                     
  3682                           ;ECU_Layer/Chr_LCD/ecu_chr_lcd.c: 38:         ret = lcd_4_send_command(lcd , 0X80);
  3683   0020EA  C020  F01D         	movff	lcd_4_intialize@lcd,lcd_4_send_command@lcd
  3684   0020EE  0E80               	movlw	128
  3685   0020F0  6E1E               	movwf	lcd_4_send_command@command^0,c
  3686   0020F2  ECD8  F016         	call	_lcd_4_send_command	;wreg free
  3687   0020F6  6E23               	movwf	lcd_4_intialize@ret^0,c
  3688   0020F8                     l4539:
  3689                           
  3690                           ;ECU_Layer/Chr_LCD/ecu_chr_lcd.c: 40:     return ret ;
  3691   0020F8  5023               	movf	lcd_4_intialize@ret^0,w,c
  3692   0020FA  0012               	return		;funcret
  3693   0020FC                     __end_of_lcd_4_intialize:
  3694                           	callstack 0
  3695                           
  3696 ;; *************** function _lcd_4_send_command *****************
  3697 ;; Defined at:
  3698 ;;		line 45 in file "ECU_Layer/Chr_LCD/ecu_chr_lcd.c"
  3699 ;; Parameters:    Size  Location     Type
  3700 ;;  lcd             1   28[COMRAM] PTR struct .
  3701 ;;		 -> lcd_1(6), 
  3702 ;;  command         1   29[COMRAM] unsigned char 
  3703 ;; Auto vars:     Size  Location     Type
  3704 ;;  ret             1   30[COMRAM] unsigned char 
  3705 ;; Return value:  Size  Location     Type
  3706 ;;                  1    wreg      unsigned char 
  3707 ;; Registers used:
  3708 ;;		wreg, fsr2l, fsr2h, status,2, status,0, prodl, prodh, cstack
  3709 ;; Tracked objects:
  3710 ;;		On entry : 0/0
  3711 ;;		On exit  : 0/0
  3712 ;;		Unchanged: 0/0
  3713 ;; Data sizes:     COMRAM   BANK0   BANK1   BANK2   BANK3   BANK4   BANK5   BANK6   BANK7   BANK8   BANK9  BANK10  BANK1
      +1  BANK12  BANK13  BANK14  BANK15
  3714 ;;      Params:         2       0       0       0       0       0       0       0       0       0       0       0       
      +0       0       0       0       0
  3715 ;;      Locals:         1       0       0       0       0       0       0       0       0       0       0       0       
      +0       0       0       0       0
  3716 ;;      Temps:          0       0       0       0       0       0       0       0       0       0       0       0       
      +0       0       0       0       0
  3717 ;;      Totals:         3       0       0       0       0       0       0       0       0       0       0       0       
      +0       0       0       0       0
  3718 ;;Total ram usage:        3 bytes
  3719 ;; Hardware stack levels used: 1
  3720 ;; Hardware stack levels required when called: 7
  3721 ;; This function calls:
  3722 ;;		_gpio_pin_write_logic
  3723 ;;		_lcd_4bit_send_enable_signale
  3724 ;;		_lcd_send_4bit
  3725 ;; This function is called by:
  3726 ;;		_lcd_4_intialize
  3727 ;;		_lcd_4bit_set_cursor
  3728 ;;		_main
  3729 ;;		_lcd_4_send_custome_char
  3730 ;; This function uses a non-reentrant model
  3731 ;;
  3732                           
  3733                           	psect	text12
  3734   002DB0                     __ptext12:
  3735                           	callstack 0
  3736   002DB0                     _lcd_4_send_command:
  3737                           	callstack 21
  3738   002DB0                     
  3739                           ;ECU_Layer/Chr_LCD/ecu_chr_lcd.c: 48:     if(((void*)0) == lcd)
  3740   002DB0  501D               	movf	lcd_4_send_command@lcd^0,w,c
  3741   002DB2  A4D8               	btfss	status,2,c
  3742   002DB4  EFDE  F016         	goto	u3301
  3743   002DB8  EFE0  F016         	goto	u3300
  3744   002DBC                     u3301:
  3745   002DBC  EFE4  F016         	goto	l4409
  3746   002DC0                     u3300:
  3747   002DC0                     
  3748                           ;ECU_Layer/Chr_LCD/ecu_chr_lcd.c: 49:         ret = (std_ReturneType)0x00 ;
  3749   002DC0  0E00               	movlw	0
  3750   002DC2  6E1F               	movwf	lcd_4_send_command@ret^0,c
  3751   002DC4  EF04  F017         	goto	l4411
  3752   002DC8                     l4409:
  3753                           
  3754                           ;ECU_Layer/Chr_LCD/ecu_chr_lcd.c: 51:     {;ECU_Layer/Chr_LCD/ecu_chr_lcd.c: 52:        
      +                           ret = gpio_pin_write_logic(&(lcd->lcd_rs) , LOW);
  3755   002DC8  C01D  F012         	movff	lcd_4_send_command@lcd,gpio_pin_write_logic@_pin_config
  3756   002DCC  0E00               	movlw	0
  3757   002DCE  6E13               	movwf	gpio_pin_write_logic@logic^0,c
  3758   002DD0  EC8A  F00E         	call	_gpio_pin_write_logic	;wreg free
  3759   002DD4  6E1F               	movwf	lcd_4_send_command@ret^0,c
  3760                           
  3761                           ;ECU_Layer/Chr_LCD/ecu_chr_lcd.c: 53:         ret = lcd_send_4bit(lcd , command >> 4);
  3762   002DD6  C01D  F01A         	movff	lcd_4_send_command@lcd,lcd_send_4bit@lcd
  3763   002DDA  381E               	swapf	lcd_4_send_command@command^0,w,c
  3764   002DDC  0B0F               	andlw	15
  3765   002DDE  6E1B               	movwf	lcd_send_4bit@command^0,c
  3766   002DE0  ECC8  F014         	call	_lcd_send_4bit	;wreg free
  3767   002DE4  6E1F               	movwf	lcd_4_send_command@ret^0,c
  3768                           
  3769                           ;ECU_Layer/Chr_LCD/ecu_chr_lcd.c: 54:         ret = lcd_4bit_send_enable_signale(lcd);
  3770   002DE6  C01D  F01A         	movff	lcd_4_send_command@lcd,lcd_4bit_send_enable_signale@lcd
  3771   002DEA  EC9E  F017         	call	_lcd_4bit_send_enable_signale	;wreg free
  3772   002DEE  6E1F               	movwf	lcd_4_send_command@ret^0,c
  3773                           
  3774                           ;ECU_Layer/Chr_LCD/ecu_chr_lcd.c: 55:         ret = lcd_send_4bit(lcd , command);
  3775   002DF0  C01D  F01A         	movff	lcd_4_send_command@lcd,lcd_send_4bit@lcd
  3776   002DF4  C01E  F01B         	movff	lcd_4_send_command@command,lcd_send_4bit@command
  3777   002DF8  ECC8  F014         	call	_lcd_send_4bit	;wreg free
  3778   002DFC  6E1F               	movwf	lcd_4_send_command@ret^0,c
  3779                           
  3780                           ;ECU_Layer/Chr_LCD/ecu_chr_lcd.c: 56:         ret = lcd_4bit_send_enable_signale(lcd);
  3781   002DFE  C01D  F01A         	movff	lcd_4_send_command@lcd,lcd_4bit_send_enable_signale@lcd
  3782   002E02  EC9E  F017         	call	_lcd_4bit_send_enable_signale	;wreg free
  3783   002E06  6E1F               	movwf	lcd_4_send_command@ret^0,c
  3784   002E08                     l4411:
  3785                           
  3786                           ;ECU_Layer/Chr_LCD/ecu_chr_lcd.c: 58:     return ret ;
  3787   002E08  501F               	movf	lcd_4_send_command@ret^0,w,c
  3788   002E0A  0012               	return		;funcret
  3789   002E0C                     __end_of_lcd_4_send_command:
  3790                           	callstack 0
  3791                           
  3792 ;; *************** function _lcd_send_4bit *****************
  3793 ;; Defined at:
  3794 ;;		line 347 in file "ECU_Layer/Chr_LCD/ecu_chr_lcd.c"
  3795 ;; Parameters:    Size  Location     Type
  3796 ;;  lcd             1   25[COMRAM] PTR struct .
  3797 ;;		 -> lcd_1(6), 
  3798 ;;  command         1   26[COMRAM] unsigned char 
  3799 ;; Auto vars:     Size  Location     Type
  3800 ;;  ret             1   27[COMRAM] unsigned char 
  3801 ;; Return value:  Size  Location     Type
  3802 ;;                  1    wreg      unsigned char 
  3803 ;; Registers used:
  3804 ;;		wreg, fsr2l, fsr2h, status,2, status,0, prodl, prodh, cstack
  3805 ;; Tracked objects:
  3806 ;;		On entry : 0/0
  3807 ;;		On exit  : 0/0
  3808 ;;		Unchanged: 0/0
  3809 ;; Data sizes:     COMRAM   BANK0   BANK1   BANK2   BANK3   BANK4   BANK5   BANK6   BANK7   BANK8   BANK9  BANK10  BANK1
      +1  BANK12  BANK13  BANK14  BANK15
  3810 ;;      Params:         2       0       0       0       0       0       0       0       0       0       0       0       
      +0       0       0       0       0
  3811 ;;      Locals:         1       0       0       0       0       0       0       0       0       0       0       0       
      +0       0       0       0       0
  3812 ;;      Temps:          0       0       0       0       0       0       0       0       0       0       0       0       
      +0       0       0       0       0
  3813 ;;      Totals:         3       0       0       0       0       0       0       0       0       0       0       0       
      +0       0       0       0       0
  3814 ;;Total ram usage:        3 bytes
  3815 ;; Hardware stack levels used: 1
  3816 ;; Hardware stack levels required when called: 6
  3817 ;; This function calls:
  3818 ;;		_gpio_pin_write_logic
  3819 ;; This function is called by:
  3820 ;;		_lcd_4_send_command
  3821 ;;		_lcd_4_send_char_data
  3822 ;; This function uses a non-reentrant model
  3823 ;;
  3824                           
  3825                           	psect	text13
  3826   002990                     __ptext13:
  3827                           	callstack 0
  3828   002990                     _lcd_send_4bit:
  3829                           	callstack 21
  3830   002990                     
  3831                           ;ECU_Layer/Chr_LCD/ecu_chr_lcd.c: 350:     if(((void*)0) == lcd)
  3832   002990  501A               	movf	lcd_send_4bit@lcd^0,w,c
  3833   002992  A4D8               	btfss	status,2,c
  3834   002994  EFCE  F014         	goto	u3081
  3835   002998  EFD0  F014         	goto	u3080
  3836   00299C                     u3081:
  3837   00299C  EFD4  F014         	goto	l4289
  3838   0029A0                     u3080:
  3839   0029A0                     
  3840                           ;ECU_Layer/Chr_LCD/ecu_chr_lcd.c: 351:         ret = (std_ReturneType)0x00 ;
  3841   0029A0  0E00               	movlw	0
  3842   0029A2  6E1C               	movwf	lcd_send_4bit@ret^0,c
  3843   0029A4  EFFF  F014         	goto	l4293
  3844   0029A8                     l4289:
  3845                           
  3846                           ;ECU_Layer/Chr_LCD/ecu_chr_lcd.c: 353:     {;ECU_Layer/Chr_LCD/ecu_chr_lcd.c: 354:      
      +                             ret = gpio_pin_write_logic(&(lcd->lcd_data[0]) , (command >> 0) & (uint8)0X01);
  3847   0029A8  501A               	movf	lcd_send_4bit@lcd^0,w,c
  3848   0029AA  0F02               	addlw	2
  3849   0029AC  6E12               	movwf	gpio_pin_write_logic@_pin_config^0,c
  3850   0029AE  501B               	movf	lcd_send_4bit@command^0,w,c
  3851   0029B0  0B01               	andlw	1
  3852   0029B2  6E13               	movwf	gpio_pin_write_logic@logic^0,c
  3853   0029B4  EC8A  F00E         	call	_gpio_pin_write_logic	;wreg free
  3854   0029B8  6E1C               	movwf	lcd_send_4bit@ret^0,c
  3855                           
  3856                           ;ECU_Layer/Chr_LCD/ecu_chr_lcd.c: 355:         ret = gpio_pin_write_logic(&(lcd->lcd_dat
      +                          a[1]) , (command >> 1) & (uint8)0X01);
  3857   0029BA  501A               	movf	lcd_send_4bit@lcd^0,w,c
  3858   0029BC  0F03               	addlw	3
  3859   0029BE  6E12               	movwf	gpio_pin_write_logic@_pin_config^0,c
  3860   0029C0  90D8               	bcf	status,0,c
  3861   0029C2  301B               	rrcf	lcd_send_4bit@command^0,w,c
  3862   0029C4  0B01               	andlw	1
  3863   0029C6  6E13               	movwf	gpio_pin_write_logic@logic^0,c
  3864   0029C8  EC8A  F00E         	call	_gpio_pin_write_logic	;wreg free
  3865   0029CC  6E1C               	movwf	lcd_send_4bit@ret^0,c
  3866                           
  3867                           ;ECU_Layer/Chr_LCD/ecu_chr_lcd.c: 356:         ret = gpio_pin_write_logic(&(lcd->lcd_dat
      +                          a[2]) , (command >> 2) & (uint8)0X01);
  3868   0029CE  501A               	movf	lcd_send_4bit@lcd^0,w,c
  3869   0029D0  0F04               	addlw	4
  3870   0029D2  6E12               	movwf	gpio_pin_write_logic@_pin_config^0,c
  3871   0029D4  401B               	rrncf	lcd_send_4bit@command^0,w,c
  3872   0029D6  42E8               	rrncf	wreg,f,c
  3873   0029D8  0B3F               	andlw	63
  3874   0029DA  0B01               	andlw	1
  3875   0029DC  6E13               	movwf	gpio_pin_write_logic@logic^0,c
  3876   0029DE  EC8A  F00E         	call	_gpio_pin_write_logic	;wreg free
  3877   0029E2  6E1C               	movwf	lcd_send_4bit@ret^0,c
  3878                           
  3879                           ;ECU_Layer/Chr_LCD/ecu_chr_lcd.c: 357:         ret = gpio_pin_write_logic(&(lcd->lcd_dat
      +                          a[3]) , (command >> 3) & (uint8)0X01);
  3880   0029E4  501A               	movf	lcd_send_4bit@lcd^0,w,c
  3881   0029E6  0F05               	addlw	5
  3882   0029E8  6E12               	movwf	gpio_pin_write_logic@_pin_config^0,c
  3883   0029EA  381B               	swapf	lcd_send_4bit@command^0,w,c
  3884   0029EC  46E8               	rlncf	wreg,f,c
  3885   0029EE  0B1F               	andlw	31
  3886   0029F0  0B01               	andlw	1
  3887   0029F2  6E13               	movwf	gpio_pin_write_logic@logic^0,c
  3888   0029F4  EC8A  F00E         	call	_gpio_pin_write_logic	;wreg free
  3889   0029F8  6E1C               	movwf	lcd_send_4bit@ret^0,c
  3890   0029FA                     
  3891                           ;ECU_Layer/Chr_LCD/ecu_chr_lcd.c: 358:         ret = (std_ReturneType)0x01 ;
  3892   0029FA  0E01               	movlw	1
  3893   0029FC  6E1C               	movwf	lcd_send_4bit@ret^0,c
  3894   0029FE                     l4293:
  3895                           
  3896                           ;ECU_Layer/Chr_LCD/ecu_chr_lcd.c: 360:     return ret ;
  3897   0029FE  501C               	movf	lcd_send_4bit@ret^0,w,c
  3898   002A00  0012               	return		;funcret
  3899   002A02                     __end_of_lcd_send_4bit:
  3900                           	callstack 0
  3901                           
  3902 ;; *************** function _lcd_4bit_send_enable_signale *****************
  3903 ;; Defined at:
  3904 ;;		line 365 in file "ECU_Layer/Chr_LCD/ecu_chr_lcd.c"
  3905 ;; Parameters:    Size  Location     Type
  3906 ;;  lcd             1   25[COMRAM] PTR struct .
  3907 ;;		 -> lcd_1(6), 
  3908 ;; Auto vars:     Size  Location     Type
  3909 ;;  ret             1   26[COMRAM] unsigned char 
  3910 ;; Return value:  Size  Location     Type
  3911 ;;                  1    wreg      unsigned char 
  3912 ;; Registers used:
  3913 ;;		wreg, fsr2l, fsr2h, status,2, status,0, prodl, prodh, cstack
  3914 ;; Tracked objects:
  3915 ;;		On entry : 0/0
  3916 ;;		On exit  : 0/0
  3917 ;;		Unchanged: 0/0
  3918 ;; Data sizes:     COMRAM   BANK0   BANK1   BANK2   BANK3   BANK4   BANK5   BANK6   BANK7   BANK8   BANK9  BANK10  BANK1
      +1  BANK12  BANK13  BANK14  BANK15
  3919 ;;      Params:         1       0       0       0       0       0       0       0       0       0       0       0       
      +0       0       0       0       0
  3920 ;;      Locals:         1       0       0       0       0       0       0       0       0       0       0       0       
      +0       0       0       0       0
  3921 ;;      Temps:          0       0       0       0       0       0       0       0       0       0       0       0       
      +0       0       0       0       0
  3922 ;;      Totals:         2       0       0       0       0       0       0       0       0       0       0       0       
      +0       0       0       0       0
  3923 ;;Total ram usage:        2 bytes
  3924 ;; Hardware stack levels used: 1
  3925 ;; Hardware stack levels required when called: 6
  3926 ;; This function calls:
  3927 ;;		_gpio_pin_write_logic
  3928 ;; This function is called by:
  3929 ;;		_lcd_4_send_command
  3930 ;;		_lcd_4_send_char_data
  3931 ;; This function uses a non-reentrant model
  3932 ;;
  3933                           
  3934                           	psect	text14
  3935   002F3C                     __ptext14:
  3936                           	callstack 0
  3937   002F3C                     _lcd_4bit_send_enable_signale:
  3938                           	callstack 21
  3939   002F3C                     
  3940                           ;ECU_Layer/Chr_LCD/ecu_chr_lcd.c: 368:     if(((void*)0) == lcd)
  3941   002F3C  501A               	movf	lcd_4bit_send_enable_signale@lcd^0,w,c
  3942   002F3E  A4D8               	btfss	status,2,c
  3943   002F40  EFA4  F017         	goto	u3091
  3944   002F44  EFA6  F017         	goto	u3090
  3945   002F48                     u3091:
  3946   002F48  EFAA  F017         	goto	l4301
  3947   002F4C                     u3090:
  3948   002F4C                     
  3949                           ;ECU_Layer/Chr_LCD/ecu_chr_lcd.c: 369:         ret = (std_ReturneType)0x00 ;
  3950   002F4C  0E00               	movlw	0
  3951   002F4E  6E1B               	movwf	lcd_4bit_send_enable_signale@ret^0,c
  3952   002F50  EFBB  F017         	goto	l4307
  3953   002F54                     l4301:
  3954   002F54  281A               	incf	lcd_4bit_send_enable_signale@lcd^0,w,c
  3955   002F56  6E12               	movwf	gpio_pin_write_logic@_pin_config^0,c
  3956   002F58  0E01               	movlw	1
  3957   002F5A  6E13               	movwf	gpio_pin_write_logic@logic^0,c
  3958   002F5C  EC8A  F00E         	call	_gpio_pin_write_logic	;wreg free
  3959   002F60                     
  3960                           ;ECU_Layer/Chr_LCD/ecu_chr_lcd.c: 373:         _delay((unsigned long)((5)*(8000000/40000
      +                          00.0)));
  3961   002F60  0E03               	movlw	3
  3962   002F62                     u6227:
  3963   002F62  2EE8               	decfsz	wreg,f,c
  3964   002F64  D7FE               	bra	u6227
  3965   002F66  0000               	nop	
  3966   002F68                     
  3967                           ;ECU_Layer/Chr_LCD/ecu_chr_lcd.c: 374:         ret = gpio_pin_write_logic(&(lcd->lcd_en)
      +                           , LOW);
  3968   002F68  281A               	incf	lcd_4bit_send_enable_signale@lcd^0,w,c
  3969   002F6A  6E12               	movwf	gpio_pin_write_logic@_pin_config^0,c
  3970   002F6C  0E00               	movlw	0
  3971   002F6E  6E13               	movwf	gpio_pin_write_logic@logic^0,c
  3972   002F70  EC8A  F00E         	call	_gpio_pin_write_logic	;wreg free
  3973   002F74  6E1B               	movwf	lcd_4bit_send_enable_signale@ret^0,c
  3974   002F76                     l4307:
  3975                           
  3976                           ;ECU_Layer/Chr_LCD/ecu_chr_lcd.c: 376:     return ret ;
  3977   002F76  501B               	movf	lcd_4bit_send_enable_signale@ret^0,w,c
  3978   002F78  0012               	return		;funcret
  3979   002F7A                     __end_of_lcd_4bit_send_enable_signale:
  3980                           	callstack 0
  3981                           
  3982 ;; *************** function _keypad_intialize *****************
  3983 ;; Defined at:
  3984 ;;		line 13 in file "ECU_Layer/KeyPad/ecu_Keypad.c"
  3985 ;; Parameters:    Size  Location     Type
  3986 ;;  _keypad_obj     1   28[COMRAM] PTR const struct .
  3987 ;;		 -> KeyPad1(8), 
  3988 ;; Auto vars:     Size  Location     Type
  3989 ;;  columns_coun    1   31[COMRAM] unsigned char 
  3990 ;;  rows_counter    1   30[COMRAM] unsigned char 
  3991 ;;  ret             1   29[COMRAM] unsigned char 
  3992 ;; Return value:  Size  Location     Type
  3993 ;;                  1    wreg      unsigned char 
  3994 ;; Registers used:
  3995 ;;		wreg, fsr2l, fsr2h, status,2, status,0, prodl, prodh, cstack
  3996 ;; Tracked objects:
  3997 ;;		On entry : 0/0
  3998 ;;		On exit  : 0/0
  3999 ;;		Unchanged: 0/0
  4000 ;; Data sizes:     COMRAM   BANK0   BANK1   BANK2   BANK3   BANK4   BANK5   BANK6   BANK7   BANK8   BANK9  BANK10  BANK1
      +1  BANK12  BANK13  BANK14  BANK15
  4001 ;;      Params:         1       0       0       0       0       0       0       0       0       0       0       0       
      +0       0       0       0       0
  4002 ;;      Locals:         3       0       0       0       0       0       0       0       0       0       0       0       
      +0       0       0       0       0
  4003 ;;      Temps:          0       0       0       0       0       0       0       0       0       0       0       0       
      +0       0       0       0       0
  4004 ;;      Totals:         4       0       0       0       0       0       0       0       0       0       0       0       
      +0       0       0       0       0
  4005 ;;Total ram usage:        4 bytes
  4006 ;; Hardware stack levels used: 1
  4007 ;; Hardware stack levels required when called: 7
  4008 ;; This function calls:
  4009 ;;		_gpio_pin_direction_intialize
  4010 ;;		_gpio_pin_intialize
  4011 ;; This function is called by:
  4012 ;;		_ecu_layer_initialize
  4013 ;; This function uses a non-reentrant model
  4014 ;;
  4015                           
  4016                           	psect	text15
  4017   002C28                     __ptext15:
  4018                           	callstack 0
  4019   002C28                     _keypad_intialize:
  4020                           	callstack 22
  4021   002C28                     
  4022                           ;ECU_Layer/KeyPad/ecu_Keypad.c: 16:     uint8 rows_counter = 0 , columns_counter = 0 ;
  4023   002C28  0E00               	movlw	0
  4024   002C2A  6E1F               	movwf	keypad_intialize@rows_counter^0,c
  4025   002C2C  0E00               	movlw	0
  4026   002C2E  6E20               	movwf	keypad_intialize@columns_counter^0,c
  4027                           
  4028                           ;ECU_Layer/KeyPad/ecu_Keypad.c: 17:     if(((void*)0) == _keypad_obj)
  4029   002C30  501D               	movf	keypad_intialize@_keypad_obj^0,w,c
  4030   002C32  A4D8               	btfss	status,2,c
  4031   002C34  EF1E  F016         	goto	u3551
  4032   002C38  EF20  F016         	goto	u3550
  4033   002C3C                     u3551:
  4034   002C3C  EF24  F016         	goto	l4669
  4035   002C40                     u3550:
  4036   002C40                     
  4037                           ;ECU_Layer/KeyPad/ecu_Keypad.c: 18:         ret = (std_ReturneType)0x00 ;
  4038   002C40  0E00               	movlw	0
  4039   002C42  6E1E               	movwf	keypad_intialize@ret^0,c
  4040   002C44  EF46  F016         	goto	l4693
  4041   002C48                     l4669:
  4042                           
  4043                           ;ECU_Layer/KeyPad/ecu_Keypad.c: 20:     {;ECU_Layer/KeyPad/ecu_Keypad.c: 21:         for
      +                          (rows_counter = 0 ; rows_counter < 4 ; rows_counter++)
  4044   002C48  0E00               	movlw	0
  4045   002C4A  6E1F               	movwf	keypad_intialize@rows_counter^0,c
  4046   002C4C                     l4675:
  4047   002C4C  501D               	movf	keypad_intialize@_keypad_obj^0,w,c
  4048   002C4E  241F               	addwf	keypad_intialize@rows_counter^0,w,c
  4049   002C50  6E1A               	movwf	gpio_pin_intialize@_pin_config^0,c
  4050   002C52  EC01  F015         	call	_gpio_pin_intialize	;wreg free
  4051   002C56                     
  4052                           ;ECU_Layer/KeyPad/ecu_Keypad.c: 24:         }
  4053   002C56  2A1F               	incf	keypad_intialize@rows_counter^0,f,c
  4054   002C58  0E03               	movlw	3
  4055   002C5A  641F               	cpfsgt	keypad_intialize@rows_counter^0,c
  4056   002C5C  EF32  F016         	goto	u3561
  4057   002C60  EF34  F016         	goto	u3560
  4058   002C64                     u3561:
  4059   002C64  EF26  F016         	goto	l4675
  4060   002C68                     u3560:
  4061   002C68                     
  4062                           ;ECU_Layer/KeyPad/ecu_Keypad.c: 25:         for(columns_counter = 0 ; columns_counter < 
      +                          4 ; columns_counter++)
  4063   002C68  0E00               	movlw	0
  4064   002C6A  6E20               	movwf	keypad_intialize@columns_counter^0,c
  4065   002C6C                     l4687:
  4066                           
  4067                           ;ECU_Layer/KeyPad/ecu_Keypad.c: 26:         {;ECU_Layer/KeyPad/ecu_Keypad.c: 27:        
      +                               ret = gpio_pin_direction_intialize(&(_keypad_obj->keypad_columns_pins[columns_count
      +                          er]));
  4068   002C6C  501D               	movf	keypad_intialize@_keypad_obj^0,w,c
  4069   002C6E  2420               	addwf	keypad_intialize@columns_counter^0,w,c
  4070   002C70  0F04               	addlw	4
  4071   002C72  6E12               	movwf	gpio_pin_direction_intialize@_pin_config^0,c
  4072   002C74  ECF7  F00D         	call	_gpio_pin_direction_intialize	;wreg free
  4073   002C78  6E1E               	movwf	keypad_intialize@ret^0,c
  4074   002C7A                     
  4075                           ;ECU_Layer/KeyPad/ecu_Keypad.c: 28:         }
  4076   002C7A  2A20               	incf	keypad_intialize@columns_counter^0,f,c
  4077   002C7C  0E03               	movlw	3
  4078   002C7E  6420               	cpfsgt	keypad_intialize@columns_counter^0,c
  4079   002C80  EF44  F016         	goto	u3571
  4080   002C84  EF46  F016         	goto	u3570
  4081   002C88                     u3571:
  4082   002C88  EF36  F016         	goto	l4687
  4083   002C8C                     u3570:
  4084   002C8C                     l4693:
  4085                           
  4086                           ;ECU_Layer/KeyPad/ecu_Keypad.c: 30:     return ret ;
  4087   002C8C  501E               	movf	keypad_intialize@ret^0,w,c
  4088   002C8E  0012               	return		;funcret
  4089   002C90                     __end_of_keypad_intialize:
  4090                           	callstack 0
  4091                           
  4092 ;; *************** function _gpio_pin_intialize *****************
  4093 ;; Defined at:
  4094 ;;		line 126 in file "MCAL_Layer/GPIO/hal_gpio.c"
  4095 ;; Parameters:    Size  Location     Type
  4096 ;;  _pin_config     1   25[COMRAM] PTR const struct .
  4097 ;;		 -> KeyPad1$keypad_row_pins(4), KeyPad1(8), lcd_1$lcd_data(4), lcd_1$lcd_en(1), 
  4098 ;;		 -> lcd_1$lcd_rs(1), lcd_1(6), 
  4099 ;; Auto vars:     Size  Location     Type
  4100 ;;  ret             1   27[COMRAM] unsigned char 
  4101 ;; Return value:  Size  Location     Type
  4102 ;;                  1    wreg      unsigned char 
  4103 ;; Registers used:
  4104 ;;		wreg, fsr2l, fsr2h, status,2, status,0, prodl, prodh, cstack
  4105 ;; Tracked objects:
  4106 ;;		On entry : 0/0
  4107 ;;		On exit  : 0/0
  4108 ;;		Unchanged: 0/0
  4109 ;; Data sizes:     COMRAM   BANK0   BANK1   BANK2   BANK3   BANK4   BANK5   BANK6   BANK7   BANK8   BANK9  BANK10  BANK1
      +1  BANK12  BANK13  BANK14  BANK15
  4110 ;;      Params:         1       0       0       0       0       0       0       0       0       0       0       0       
      +0       0       0       0       0
  4111 ;;      Locals:         1       0       0       0       0       0       0       0       0       0       0       0       
      +0       0       0       0       0
  4112 ;;      Temps:          1       0       0       0       0       0       0       0       0       0       0       0       
      +0       0       0       0       0
  4113 ;;      Totals:         3       0       0       0       0       0       0       0       0       0       0       0       
      +0       0       0       0       0
  4114 ;;Total ram usage:        3 bytes
  4115 ;; Hardware stack levels used: 1
  4116 ;; Hardware stack levels required when called: 6
  4117 ;; This function calls:
  4118 ;;		_gpio_pin_direction_intialize
  4119 ;;		_gpio_pin_write_logic
  4120 ;; This function is called by:
  4121 ;;		_lcd_4_intialize
  4122 ;;		_keypad_intialize
  4123 ;;		_lcd_8_intialize
  4124 ;; This function uses a non-reentrant model
  4125 ;;
  4126                           
  4127                           	psect	text16
  4128   002A02                     __ptext16:
  4129                           	callstack 0
  4130   002A02                     _gpio_pin_intialize:
  4131                           	callstack 22
  4132   002A02                     
  4133                           ;MCAL_Layer/GPIO/hal_gpio.c: 129:     if((_pin_config == ((void*)0)) || (_pin_config->pi
      +                          n > 8 -1))
  4134   002A02  501A               	movf	gpio_pin_intialize@_pin_config^0,w,c
  4135   002A04  B4D8               	btfsc	status,2,c
  4136   002A06  EF07  F015         	goto	u3271
  4137   002A0A  EF09  F015         	goto	u3270
  4138   002A0E                     u3271:
  4139   002A0E  EF19  F015         	goto	l4393
  4140   002A12                     u3270:
  4141   002A12  501A               	movf	gpio_pin_intialize@_pin_config^0,w,c
  4142   002A14  6ED9               	movwf	fsr2l,c
  4143   002A16  6ADA               	clrf	fsr2h,c
  4144   002A18  30DF               	rrcf	223,w,c
  4145   002A1A  32E8               	rrcf	wreg,f,c
  4146   002A1C  32E8               	rrcf	wreg,f,c
  4147   002A1E  0B07               	andlw	7
  4148   002A20  6E1B               	movwf	??_gpio_pin_intialize^0,c
  4149   002A22  0E07               	movlw	7
  4150   002A24  641B               	cpfsgt	??_gpio_pin_intialize^0,c
  4151   002A26  EF17  F015         	goto	u3281
  4152   002A2A  EF19  F015         	goto	u3280
  4153   002A2E                     u3281:
  4154   002A2E  EF1D  F015         	goto	l4395
  4155   002A32                     u3280:
  4156   002A32                     l4393:
  4157                           
  4158                           ;MCAL_Layer/GPIO/hal_gpio.c: 130:         ret = (std_ReturneType)0x00 ;
  4159   002A32  0E00               	movlw	0
  4160   002A34  6E1C               	movwf	gpio_pin_intialize@ret^0,c
  4161   002A36  EF38  F015         	goto	l4401
  4162   002A3A                     l4395:
  4163                           
  4164                           ;MCAL_Layer/GPIO/hal_gpio.c: 132:     {;MCAL_Layer/GPIO/hal_gpio.c: 133:         ret = g
      +                          pio_pin_direction_intialize(_pin_config);
  4165   002A3A  C01A  F012         	movff	gpio_pin_intialize@_pin_config,gpio_pin_direction_intialize@_pin_config
  4166   002A3E  ECF7  F00D         	call	_gpio_pin_direction_intialize	;wreg free
  4167   002A42  6E1C               	movwf	gpio_pin_intialize@ret^0,c
  4168   002A44                     
  4169                           ;MCAL_Layer/GPIO/hal_gpio.c: 134:         if(_pin_config->direction == OUTPUT)
  4170   002A44  501A               	movf	gpio_pin_intialize@_pin_config^0,w,c
  4171   002A46  6ED9               	movwf	fsr2l,c
  4172   002A48  6ADA               	clrf	fsr2h,c
  4173   002A4A  BCDF               	btfsc	indf2,6,c
  4174   002A4C  EF2A  F015         	goto	u3291
  4175   002A50  EF2C  F015         	goto	u3290
  4176   002A54                     u3291:
  4177   002A54  EF38  F015         	goto	l4401
  4178   002A58                     u3290:
  4179   002A58                     
  4180                           ;MCAL_Layer/GPIO/hal_gpio.c: 135:         {;MCAL_Layer/GPIO/hal_gpio.c: 136:            
      +                           ret = gpio_pin_write_logic(_pin_config , _pin_config->logic);
  4181   002A58  C01A  F012         	movff	gpio_pin_intialize@_pin_config,gpio_pin_write_logic@_pin_config
  4182   002A5C  501A               	movf	gpio_pin_intialize@_pin_config^0,w,c
  4183   002A5E  6ED9               	movwf	fsr2l,c
  4184   002A60  6ADA               	clrf	fsr2h,c
  4185   002A62  0E00               	movlw	0
  4186   002A64  BEDF               	btfsc	indf2,7,c
  4187   002A66  0E01               	movlw	1
  4188   002A68  6E13               	movwf	gpio_pin_write_logic@logic^0,c
  4189   002A6A  EC8A  F00E         	call	_gpio_pin_write_logic	;wreg free
  4190   002A6E  6E1C               	movwf	gpio_pin_intialize@ret^0,c
  4191   002A70                     l4401:
  4192                           
  4193                           ;MCAL_Layer/GPIO/hal_gpio.c: 139:     return ret ;
  4194   002A70  501C               	movf	gpio_pin_intialize@ret^0,w,c
  4195   002A72  0012               	return		;funcret
  4196   002A74                     __end_of_gpio_pin_intialize:
  4197                           	callstack 0
  4198                           
  4199 ;; *************** function _dc_motor_intialize *****************
  4200 ;; Defined at:
  4201 ;;		line 5 in file "ECU_Layer/DC_MOTOR/ecu_dc_motor.c"
  4202 ;; Parameters:    Size  Location     Type
  4203 ;;  _dc_motor       1   24[COMRAM] PTR const struct .
  4204 ;;		 -> motor_1(2), 
  4205 ;; Auto vars:     Size  Location     Type
  4206 ;;  ret             1   25[COMRAM] unsigned char 
  4207 ;; Return value:  Size  Location     Type
  4208 ;;                  1    wreg      unsigned char 
  4209 ;; Registers used:
  4210 ;;		wreg, fsr2l, fsr2h, status,2, status,0, prodl, prodh, cstack
  4211 ;; Tracked objects:
  4212 ;;		On entry : 0/0
  4213 ;;		On exit  : 0/0
  4214 ;;		Unchanged: 0/0
  4215 ;; Data sizes:     COMRAM   BANK0   BANK1   BANK2   BANK3   BANK4   BANK5   BANK6   BANK7   BANK8   BANK9  BANK10  BANK1
      +1  BANK12  BANK13  BANK14  BANK15
  4216 ;;      Params:         1       0       0       0       0       0       0       0       0       0       0       0       
      +0       0       0       0       0
  4217 ;;      Locals:         1       0       0       0       0       0       0       0       0       0       0       0       
      +0       0       0       0       0
  4218 ;;      Temps:          0       0       0       0       0       0       0       0       0       0       0       0       
      +0       0       0       0       0
  4219 ;;      Totals:         2       0       0       0       0       0       0       0       0       0       0       0       
      +0       0       0       0       0
  4220 ;;Total ram usage:        2 bytes
  4221 ;; Hardware stack levels used: 1
  4222 ;; Hardware stack levels required when called: 6
  4223 ;; This function calls:
  4224 ;;		_gpio_pin_direction_intialize
  4225 ;; This function is called by:
  4226 ;;		_ecu_layer_initialize
  4227 ;; This function uses a non-reentrant model
  4228 ;;
  4229                           
  4230                           	psect	text17
  4231   00302E                     __ptext17:
  4232                           	callstack 0
  4233   00302E                     _dc_motor_intialize:
  4234                           	callstack 23
  4235   00302E                     
  4236                           ;ECU_Layer/DC_MOTOR/ecu_dc_motor.c: 8:     if(((void*)0) == _dc_motor)
  4237   00302E  5019               	movf	dc_motor_intialize@_dc_motor^0,w,c
  4238   003030  A4D8               	btfss	status,2,c
  4239   003032  EF1D  F018         	goto	u3511
  4240   003036  EF1F  F018         	goto	u3510
  4241   00303A                     u3511:
  4242   00303A  EF23  F018         	goto	l4645
  4243   00303E                     u3510:
  4244   00303E                     
  4245                           ;ECU_Layer/DC_MOTOR/ecu_dc_motor.c: 9:         ret = (std_ReturneType)0x00 ;
  4246   00303E  0E00               	movlw	0
  4247   003040  6E1A               	movwf	dc_motor_intialize@ret^0,c
  4248   003042  EF2F  F018         	goto	l4649
  4249   003046                     l4645:
  4250                           
  4251                           ;ECU_Layer/DC_MOTOR/ecu_dc_motor.c: 11:     {;ECU_Layer/DC_MOTOR/ecu_dc_motor.c: 12:    
      +                               ret = gpio_pin_direction_intialize(&(_dc_motor->dc_motor[0]));
  4252   003046  C019  F012         	movff	dc_motor_intialize@_dc_motor,gpio_pin_direction_intialize@_pin_config
  4253   00304A  ECF7  F00D         	call	_gpio_pin_direction_intialize	;wreg free
  4254   00304E  6E1A               	movwf	dc_motor_intialize@ret^0,c
  4255                           
  4256                           ;ECU_Layer/DC_MOTOR/ecu_dc_motor.c: 13:         ret = gpio_pin_direction_intialize(&(_dc
      +                          _motor->dc_motor[1]));
  4257   003050  2819               	incf	dc_motor_intialize@_dc_motor^0,w,c
  4258   003052  6E12               	movwf	gpio_pin_direction_intialize@_pin_config^0,c
  4259   003054  ECF7  F00D         	call	_gpio_pin_direction_intialize	;wreg free
  4260   003058  6E1A               	movwf	dc_motor_intialize@ret^0,c
  4261   00305A                     
  4262                           ;ECU_Layer/DC_MOTOR/ecu_dc_motor.c: 14:         ret = (std_ReturneType)0x01 ;
  4263   00305A  0E01               	movlw	1
  4264   00305C  6E1A               	movwf	dc_motor_intialize@ret^0,c
  4265   00305E                     l4649:
  4266                           
  4267                           ;ECU_Layer/DC_MOTOR/ecu_dc_motor.c: 16:     return ret ;
  4268   00305E  501A               	movf	dc_motor_intialize@ret^0,w,c
  4269   003060  0012               	return		;funcret
  4270   003062                     __end_of_dc_motor_intialize:
  4271                           	callstack 0
  4272                           
  4273 ;; *************** function _gpio_pin_direction_intialize *****************
  4274 ;; Defined at:
  4275 ;;		line 13 in file "MCAL_Layer/GPIO/hal_gpio.c"
  4276 ;; Parameters:    Size  Location     Type
  4277 ;;  _pin_config     1   17[COMRAM] PTR const struct .
  4278 ;;		 -> motor_1$dc_motor(2), motor_1(2), KeyPad1$keypad_columns_pins(4), KeyPad1$keypad_row_pins(4), 
  4279 ;;		 -> KeyPad1(8), lcd_1$lcd_data(4), lcd_1$lcd_en(1), lcd_1$lcd_rs(1), 
  4280 ;;		 -> lcd_1(6), relay_intialize@pin_obj(1), led_initialize@pin_obj(1), 
  4281 ;; Auto vars:     Size  Location     Type
  4282 ;;  ret             1   23[COMRAM] unsigned char 
  4283 ;; Return value:  Size  Location     Type
  4284 ;;                  1    wreg      unsigned char 
  4285 ;; Registers used:
  4286 ;;		wreg, fsr2l, fsr2h, status,2, status,0, prodl, prodh
  4287 ;; Tracked objects:
  4288 ;;		On entry : 0/0
  4289 ;;		On exit  : 0/0
  4290 ;;		Unchanged: 0/0
  4291 ;; Data sizes:     COMRAM   BANK0   BANK1   BANK2   BANK3   BANK4   BANK5   BANK6   BANK7   BANK8   BANK9  BANK10  BANK1
      +1  BANK12  BANK13  BANK14  BANK15
  4292 ;;      Params:         1       0       0       0       0       0       0       0       0       0       0       0       
      +0       0       0       0       0
  4293 ;;      Locals:         1       0       0       0       0       0       0       0       0       0       0       0       
      +0       0       0       0       0
  4294 ;;      Temps:          5       0       0       0       0       0       0       0       0       0       0       0       
      +0       0       0       0       0
  4295 ;;      Totals:         7       0       0       0       0       0       0       0       0       0       0       0       
      +0       0       0       0       0
  4296 ;;Total ram usage:        7 bytes
  4297 ;; Hardware stack levels used: 1
  4298 ;; Hardware stack levels required when called: 5
  4299 ;; This function calls:
  4300 ;;		Nothing
  4301 ;; This function is called by:
  4302 ;;		_dc_motor_intialize
  4303 ;;		_keypad_intialize
  4304 ;;		_led_initialize
  4305 ;;		_gpio_pin_intialize
  4306 ;;		_seven_segment_intialize
  4307 ;;		_button_intialize
  4308 ;;		_relay_intialize
  4309 ;;		_ADC_initialize
  4310 ;;		_ADC_select_channel
  4311 ;;		_Interrupt_INTx_PIN_INIT
  4312 ;;		_Interrupt_RBx_PIN_INIT
  4313 ;; This function uses a non-reentrant model
  4314 ;;
  4315                           
  4316                           	psect	text18
  4317   001BEE                     __ptext18:
  4318                           	callstack 0
  4319   001BEE                     _gpio_pin_direction_intialize:
  4320                           	callstack 23
  4321   001BEE                     
  4322                           ;MCAL_Layer/GPIO/hal_gpio.c: 13: std_ReturneType gpio_pin_direction_intialize(const pin_
      +                          config_t *_pin_config);MCAL_Layer/GPIO/hal_gpio.c: 14: {;MCAL_Layer/GPIO/hal_gpio.c: 15:
      +                               std_ReturneType ret = (std_ReturneType)0x01 ;
  4323   001BEE  0E01               	movlw	1
  4324   001BF0  6E18               	movwf	gpio_pin_direction_intialize@ret^0,c
  4325                           
  4326                           ;MCAL_Layer/GPIO/hal_gpio.c: 16:     if((_pin_config == ((void*)0)) || (_pin_config->pin
      +                           > 8 -1))
  4327   001BF2  5012               	movf	gpio_pin_direction_intialize@_pin_config^0,w,c
  4328   001BF4  B4D8               	btfsc	status,2,c
  4329   001BF6  EFFF  F00D         	goto	u3021
  4330   001BFA  EF01  F00E         	goto	u3020
  4331   001BFE                     u3021:
  4332   001BFE  EF11  F00E         	goto	l4267
  4333   001C02                     u3020:
  4334   001C02  5012               	movf	gpio_pin_direction_intialize@_pin_config^0,w,c
  4335   001C04  6ED9               	movwf	fsr2l,c
  4336   001C06  6ADA               	clrf	fsr2h,c
  4337   001C08  30DF               	rrcf	223,w,c
  4338   001C0A  32E8               	rrcf	wreg,f,c
  4339   001C0C  32E8               	rrcf	wreg,f,c
  4340   001C0E  0B07               	andlw	7
  4341   001C10  6E13               	movwf	??_gpio_pin_direction_intialize^0,c
  4342   001C12  0E07               	movlw	7
  4343   001C14  6413               	cpfsgt	??_gpio_pin_direction_intialize^0,c
  4344   001C16  EF0F  F00E         	goto	u3031
  4345   001C1A  EF11  F00E         	goto	u3030
  4346   001C1E                     u3031:
  4347   001C1E  EF68  F00E         	goto	l4275
  4348   001C22                     u3030:
  4349   001C22                     l4267:
  4350                           
  4351                           ;MCAL_Layer/GPIO/hal_gpio.c: 17:         ret = (std_ReturneType)0x00 ;
  4352   001C22  0E00               	movlw	0
  4353   001C24  6E18               	movwf	gpio_pin_direction_intialize@ret^0,c
  4354   001C26  EF88  F00E         	goto	l4277
  4355   001C2A                     l4269:
  4356                           
  4357                           ;MCAL_Layer/GPIO/hal_gpio.c: 23:                 ((*((volatile uint8 *)(tris_register[_p
      +                          in_config->port]))) &= ~((uint8)1 << _pin_config->pin));
  4358   001C2A  5012               	movf	gpio_pin_direction_intialize@_pin_config^0,w,c
  4359   001C2C  6ED9               	movwf	fsr2l,c
  4360   001C2E  6ADA               	clrf	fsr2h,c
  4361   001C30  30DF               	rrcf	223,w,c
  4362   001C32  32E8               	rrcf	wreg,f,c
  4363   001C34  32E8               	rrcf	wreg,f,c
  4364   001C36  0B07               	andlw	7
  4365   001C38  6E13               	movwf	??_gpio_pin_direction_intialize^0,c
  4366   001C3A  0E01               	movlw	1
  4367   001C3C  6E14               	movwf	(??_gpio_pin_direction_intialize+1)^0,c
  4368   001C3E  2A13               	incf	??_gpio_pin_direction_intialize^0,f,c
  4369   001C40  EF24  F00E         	goto	u3044
  4370   001C44                     u3045:
  4371   001C44  90D8               	bcf	status,0,c
  4372   001C46  3614               	rlcf	(??_gpio_pin_direction_intialize+1)^0,f,c
  4373   001C48                     u3044:
  4374   001C48  2E13               	decfsz	??_gpio_pin_direction_intialize^0,f,c
  4375   001C4A  EF22  F00E         	goto	u3045
  4376   001C4E  5014               	movf	(??_gpio_pin_direction_intialize+1)^0,w,c
  4377   001C50  0AFF               	xorlw	255
  4378   001C52  6E15               	movwf	(??_gpio_pin_direction_intialize+2)^0,c
  4379   001C54  5012               	movf	gpio_pin_direction_intialize@_pin_config^0,w,c
  4380   001C56  6ED9               	movwf	fsr2l,c
  4381   001C58  6ADA               	clrf	fsr2h,c
  4382   001C5A  50DF               	movf	223,w,c
  4383   001C5C  0B07               	andlw	7
  4384   001C5E  0D02               	mullw	2
  4385   001C60  50F3               	movf	243,w,c
  4386   001C62  0F94               	addlw	low _tris_register
  4387   001C64  6ED9               	movwf	fsr2l,c
  4388   001C66  6ADA               	clrf	fsr2h,c
  4389   001C68  CFDE F016          	movff	postinc2,??_gpio_pin_direction_intialize+3
  4390   001C6C  CFDD F017          	movff	postdec2,??_gpio_pin_direction_intialize+4
  4391   001C70  C016  FFD9         	movff	??_gpio_pin_direction_intialize+3,fsr2l
  4392   001C74  C017  FFDA         	movff	??_gpio_pin_direction_intialize+4,fsr2h
  4393   001C78  5015               	movf	(??_gpio_pin_direction_intialize+2)^0,w,c
  4394   001C7A  16DF               	andwf	indf2,f,c
  4395                           
  4396                           ;MCAL_Layer/GPIO/hal_gpio.c: 24:                 break;
  4397   001C7C  EF88  F00E         	goto	l4277
  4398   001C80                     l4271:
  4399                           
  4400                           ;MCAL_Layer/GPIO/hal_gpio.c: 26:                 ((*((volatile uint8 *)(tris_register[_p
      +                          in_config->port]))) |= ((uint8)1 << _pin_config->pin));
  4401   001C80  5012               	movf	gpio_pin_direction_intialize@_pin_config^0,w,c
  4402   001C82  6ED9               	movwf	fsr2l,c
  4403   001C84  6ADA               	clrf	fsr2h,c
  4404   001C86  30DF               	rrcf	223,w,c
  4405   001C88  32E8               	rrcf	wreg,f,c
  4406   001C8A  32E8               	rrcf	wreg,f,c
  4407   001C8C  0B07               	andlw	7
  4408   001C8E  6E13               	movwf	??_gpio_pin_direction_intialize^0,c
  4409   001C90  0E01               	movlw	1
  4410   001C92  6E14               	movwf	(??_gpio_pin_direction_intialize+1)^0,c
  4411   001C94  2A13               	incf	??_gpio_pin_direction_intialize^0,f,c
  4412   001C96  EF4F  F00E         	goto	u3054
  4413   001C9A                     u3055:
  4414   001C9A  90D8               	bcf	status,0,c
  4415   001C9C  3614               	rlcf	(??_gpio_pin_direction_intialize+1)^0,f,c
  4416   001C9E                     u3054:
  4417   001C9E  2E13               	decfsz	??_gpio_pin_direction_intialize^0,f,c
  4418   001CA0  EF4D  F00E         	goto	u3055
  4419   001CA4  5012               	movf	gpio_pin_direction_intialize@_pin_config^0,w,c
  4420   001CA6  6ED9               	movwf	fsr2l,c
  4421   001CA8  6ADA               	clrf	fsr2h,c
  4422   001CAA  50DF               	movf	223,w,c
  4423   001CAC  0B07               	andlw	7
  4424   001CAE  0D02               	mullw	2
  4425   001CB0  50F3               	movf	243,w,c
  4426   001CB2  0F94               	addlw	low _tris_register
  4427   001CB4  6ED9               	movwf	fsr2l,c
  4428   001CB6  6ADA               	clrf	fsr2h,c
  4429   001CB8  CFDE F015          	movff	postinc2,??_gpio_pin_direction_intialize+2
  4430   001CBC  CFDD F016          	movff	postdec2,??_gpio_pin_direction_intialize+3
  4431   001CC0  C015  FFD9         	movff	??_gpio_pin_direction_intialize+2,fsr2l
  4432   001CC4  C016  FFDA         	movff	??_gpio_pin_direction_intialize+3,fsr2h
  4433   001CC8  5014               	movf	(??_gpio_pin_direction_intialize+1)^0,w,c
  4434   001CCA  12DF               	iorwf	indf2,f,c
  4435                           
  4436                           ;MCAL_Layer/GPIO/hal_gpio.c: 27:                 break;
  4437   001CCC  EF88  F00E         	goto	l4277
  4438   001CD0                     l4275:
  4439   001CD0  5012               	movf	gpio_pin_direction_intialize@_pin_config^0,w,c
  4440   001CD2  6ED9               	movwf	fsr2l,c
  4441   001CD4  6ADA               	clrf	fsr2h,c
  4442   001CD6  BCDF               	btfsc	indf2,6,c
  4443   001CD8  EF70  F00E         	goto	u3061
  4444   001CDC  EF73  F00E         	goto	u3060
  4445   001CE0                     u3061:
  4446   001CE0  0E01               	movlw	1
  4447   001CE2  EF74  F00E         	goto	u3070
  4448   001CE6                     u3060:
  4449   001CE6  0E00               	movlw	0
  4450   001CE8                     u3070:
  4451   001CE8  6E13               	movwf	??_gpio_pin_direction_intialize^0,c
  4452   001CEA  6A14               	clrf	(??_gpio_pin_direction_intialize+1)^0,c
  4453                           
  4454                           ; Switch on 2 bytes has been partitioned into a top level switch of size 1, and 1 sub-sw
      +                          itches
  4455                           ; Switch size 1, requested type "simple"
  4456                           ; Number of cases is 1, Range of values is 0 to 0
  4457                           ; switch strategies available:
  4458                           ; Name         Instructions Cycles
  4459                           ; simple_byte            4     3 (average)
  4460                           ;	Chosen strategy is simple_byte
  4461   001CEC  5014               	movf	(??_gpio_pin_direction_intialize+1)^0,w,c
  4462   001CEE  0A00               	xorlw	0	; case 0
  4463   001CF0  B4D8               	btfsc	status,2,c
  4464   001CF2  EF7D  F00E         	goto	l6869
  4465   001CF6  EF11  F00E         	goto	l4267
  4466   001CFA                     l6869:
  4467                           
  4468                           ; Switch size 1, requested type "simple"
  4469                           ; Number of cases is 2, Range of values is 0 to 1
  4470                           ; switch strategies available:
  4471                           ; Name         Instructions Cycles
  4472                           ; simple_byte            7     4 (average)
  4473                           ;	Chosen strategy is simple_byte
  4474   001CFA  5013               	movf	??_gpio_pin_direction_intialize^0,w,c
  4475   001CFC  0A00               	xorlw	0	; case 0
  4476   001CFE  B4D8               	btfsc	status,2,c
  4477   001D00  EF15  F00E         	goto	l4269
  4478   001D04  0A01               	xorlw	1	; case 1
  4479   001D06  B4D8               	btfsc	status,2,c
  4480   001D08  EF40  F00E         	goto	l4271
  4481   001D0C  EF11  F00E         	goto	l4267
  4482   001D10                     l4277:
  4483                           
  4484                           ;MCAL_Layer/GPIO/hal_gpio.c: 32:     return ret ;
  4485   001D10  5018               	movf	gpio_pin_direction_intialize@ret^0,w,c
  4486   001D12  0012               	return		;funcret
  4487   001D14                     __end_of_gpio_pin_direction_intialize:
  4488                           	callstack 0
  4489                           
  4490 ;; *************** function _dc_motor_stop *****************
  4491 ;; Defined at:
  4492 ;;		line 69 in file "ECU_Layer/DC_MOTOR/ecu_dc_motor.c"
  4493 ;; Parameters:    Size  Location     Type
  4494 ;;  _dc_motor       1   25[COMRAM] PTR const struct .
  4495 ;;		 -> motor_1(2), 
  4496 ;; Auto vars:     Size  Location     Type
  4497 ;;  ret             1   26[COMRAM] unsigned char 
  4498 ;; Return value:  Size  Location     Type
  4499 ;;                  1    wreg      unsigned char 
  4500 ;; Registers used:
  4501 ;;		wreg, fsr2l, fsr2h, status,2, status,0, prodl, prodh, cstack
  4502 ;; Tracked objects:
  4503 ;;		On entry : 0/0
  4504 ;;		On exit  : 0/0
  4505 ;;		Unchanged: 0/0
  4506 ;; Data sizes:     COMRAM   BANK0   BANK1   BANK2   BANK3   BANK4   BANK5   BANK6   BANK7   BANK8   BANK9  BANK10  BANK1
      +1  BANK12  BANK13  BANK14  BANK15
  4507 ;;      Params:         1       0       0       0       0       0       0       0       0       0       0       0       
      +0       0       0       0       0
  4508 ;;      Locals:         1       0       0       0       0       0       0       0       0       0       0       0       
      +0       0       0       0       0
  4509 ;;      Temps:          0       0       0       0       0       0       0       0       0       0       0       0       
      +0       0       0       0       0
  4510 ;;      Totals:         2       0       0       0       0       0       0       0       0       0       0       0       
      +0       0       0       0       0
  4511 ;;Total ram usage:        2 bytes
  4512 ;; Hardware stack levels used: 1
  4513 ;; Hardware stack levels required when called: 6
  4514 ;; This function calls:
  4515 ;;		_gpio_pin_write_logic
  4516 ;; This function is called by:
  4517 ;;		_main
  4518 ;; This function uses a non-reentrant model
  4519 ;;
  4520                           
  4521                           	psect	text19
  4522   002F7A                     __ptext19:
  4523                           	callstack 0
  4524   002F7A                     _dc_motor_stop:
  4525                           	callstack 24
  4526   002F7A                     
  4527                           ;ECU_Layer/DC_MOTOR/ecu_dc_motor.c: 72:     if(((void*)0) == _dc_motor)
  4528   002F7A  501A               	movf	dc_motor_stop@_dc_motor^0,w,c
  4529   002F7C  A4D8               	btfss	status,2,c
  4530   002F7E  EFC3  F017         	goto	u3741
  4531   002F82  EFC5  F017         	goto	u3740
  4532   002F86                     u3741:
  4533   002F86  EFC9  F017         	goto	l4861
  4534   002F8A                     u3740:
  4535   002F8A                     
  4536                           ;ECU_Layer/DC_MOTOR/ecu_dc_motor.c: 73:         ret = (std_ReturneType)0x00 ;
  4537   002F8A  0E00               	movlw	0
  4538   002F8C  6E1B               	movwf	dc_motor_stop@ret^0,c
  4539   002F8E  EFD9  F017         	goto	l4865
  4540   002F92                     l4861:
  4541                           
  4542                           ;ECU_Layer/DC_MOTOR/ecu_dc_motor.c: 75:     {;ECU_Layer/DC_MOTOR/ecu_dc_motor.c: 76:    
      +                               ret = gpio_pin_write_logic(&(_dc_motor->dc_motor[0]) , LOW);
  4543   002F92  C01A  F012         	movff	dc_motor_stop@_dc_motor,gpio_pin_write_logic@_pin_config
  4544   002F96  0E00               	movlw	0
  4545   002F98  6E13               	movwf	gpio_pin_write_logic@logic^0,c
  4546   002F9A  EC8A  F00E         	call	_gpio_pin_write_logic	;wreg free
  4547   002F9E  6E1B               	movwf	dc_motor_stop@ret^0,c
  4548                           
  4549                           ;ECU_Layer/DC_MOTOR/ecu_dc_motor.c: 77:         ret = gpio_pin_write_logic(&(_dc_motor->
      +                          dc_motor[1]) , LOW);
  4550   002FA0  281A               	incf	dc_motor_stop@_dc_motor^0,w,c
  4551   002FA2  6E12               	movwf	gpio_pin_write_logic@_pin_config^0,c
  4552   002FA4  0E00               	movlw	0
  4553   002FA6  6E13               	movwf	gpio_pin_write_logic@logic^0,c
  4554   002FA8  EC8A  F00E         	call	_gpio_pin_write_logic	;wreg free
  4555   002FAC  6E1B               	movwf	dc_motor_stop@ret^0,c
  4556   002FAE                     
  4557                           ;ECU_Layer/DC_MOTOR/ecu_dc_motor.c: 78:        ret = (std_ReturneType)0x01 ;
  4558   002FAE  0E01               	movlw	1
  4559   002FB0  6E1B               	movwf	dc_motor_stop@ret^0,c
  4560   002FB2                     l4865:
  4561                           
  4562                           ;ECU_Layer/DC_MOTOR/ecu_dc_motor.c: 80:     return ret ;
  4563   002FB2  501B               	movf	dc_motor_stop@ret^0,w,c
  4564   002FB4  0012               	return		;funcret
  4565   002FB6                     __end_of_dc_motor_stop:
  4566                           	callstack 0
  4567                           
  4568 ;; *************** function _dc_motor_move_toggle *****************
  4569 ;; Defined at:
  4570 ;;		line 53 in file "ECU_Layer/DC_MOTOR/ecu_dc_motor.c"
  4571 ;; Parameters:    Size  Location     Type
  4572 ;;  _dc_motor       1   23[COMRAM] PTR const struct .
  4573 ;;		 -> motor_1(2), 
  4574 ;; Auto vars:     Size  Location     Type
  4575 ;;  ret             1   24[COMRAM] unsigned char 
  4576 ;; Return value:  Size  Location     Type
  4577 ;;                  1    wreg      unsigned char 
  4578 ;; Registers used:
  4579 ;;		wreg, fsr2l, fsr2h, status,2, status,0, prodl, prodh, cstack
  4580 ;; Tracked objects:
  4581 ;;		On entry : 0/0
  4582 ;;		On exit  : 0/0
  4583 ;;		Unchanged: 0/0
  4584 ;; Data sizes:     COMRAM   BANK0   BANK1   BANK2   BANK3   BANK4   BANK5   BANK6   BANK7   BANK8   BANK9  BANK10  BANK1
      +1  BANK12  BANK13  BANK14  BANK15
  4585 ;;      Params:         1       0       0       0       0       0       0       0       0       0       0       0       
      +0       0       0       0       0
  4586 ;;      Locals:         1       0       0       0       0       0       0       0       0       0       0       0       
      +0       0       0       0       0
  4587 ;;      Temps:          0       0       0       0       0       0       0       0       0       0       0       0       
      +0       0       0       0       0
  4588 ;;      Totals:         2       0       0       0       0       0       0       0       0       0       0       0       
      +0       0       0       0       0
  4589 ;;Total ram usage:        2 bytes
  4590 ;; Hardware stack levels used: 1
  4591 ;; Hardware stack levels required when called: 6
  4592 ;; This function calls:
  4593 ;;		_gpio_pin_toogle_logic
  4594 ;; This function is called by:
  4595 ;;		_main
  4596 ;; This function uses a non-reentrant model
  4597 ;;
  4598                           
  4599                           	psect	text20
  4600   003062                     __ptext20:
  4601                           	callstack 0
  4602   003062                     _dc_motor_move_toggle:
  4603                           	callstack 24
  4604   003062                     
  4605                           ;ECU_Layer/DC_MOTOR/ecu_dc_motor.c: 56:     if(((void*)0) == _dc_motor)
  4606   003062  5018               	movf	dc_motor_move_toggle@_dc_motor^0,w,c
  4607   003064  A4D8               	btfss	status,2,c
  4608   003066  EF37  F018         	goto	u3731
  4609   00306A  EF39  F018         	goto	u3730
  4610   00306E                     u3731:
  4611   00306E  EF3D  F018         	goto	l4849
  4612   003072                     u3730:
  4613   003072                     
  4614                           ;ECU_Layer/DC_MOTOR/ecu_dc_motor.c: 57:         ret = (std_ReturneType)0x00 ;
  4615   003072  0E00               	movlw	0
  4616   003074  6E19               	movwf	dc_motor_move_toggle@ret^0,c
  4617   003076  EF49  F018         	goto	l4853
  4618   00307A                     l4849:
  4619                           
  4620                           ;ECU_Layer/DC_MOTOR/ecu_dc_motor.c: 59:     {;ECU_Layer/DC_MOTOR/ecu_dc_motor.c: 60:    
      +                               ret = gpio_pin_toogle_logic(&(_dc_motor->dc_motor[0]));
  4621   00307A  C018  F012         	movff	dc_motor_move_toggle@_dc_motor,gpio_pin_toogle_logic@_pin_config
  4622   00307E  ECD1  F012         	call	_gpio_pin_toogle_logic	;wreg free
  4623   003082  6E19               	movwf	dc_motor_move_toggle@ret^0,c
  4624                           
  4625                           ;ECU_Layer/DC_MOTOR/ecu_dc_motor.c: 61:         ret = gpio_pin_toogle_logic(&(_dc_motor-
      +                          >dc_motor[1]));
  4626   003084  2818               	incf	dc_motor_move_toggle@_dc_motor^0,w,c
  4627   003086  6E12               	movwf	gpio_pin_toogle_logic@_pin_config^0,c
  4628   003088  ECD1  F012         	call	_gpio_pin_toogle_logic	;wreg free
  4629   00308C  6E19               	movwf	dc_motor_move_toggle@ret^0,c
  4630   00308E                     
  4631                           ;ECU_Layer/DC_MOTOR/ecu_dc_motor.c: 62:        ret = (std_ReturneType)0x01 ;
  4632   00308E  0E01               	movlw	1
  4633   003090  6E19               	movwf	dc_motor_move_toggle@ret^0,c
  4634   003092                     l4853:
  4635                           
  4636                           ;ECU_Layer/DC_MOTOR/ecu_dc_motor.c: 64:     return ret ;
  4637   003092  5019               	movf	dc_motor_move_toggle@ret^0,w,c
  4638   003094  0012               	return		;funcret
  4639   003096                     __end_of_dc_motor_move_toggle:
  4640                           	callstack 0
  4641                           
  4642 ;; *************** function _gpio_pin_toogle_logic *****************
  4643 ;; Defined at:
  4644 ;;		line 108 in file "MCAL_Layer/GPIO/hal_gpio.c"
  4645 ;; Parameters:    Size  Location     Type
  4646 ;;  _pin_config     1   17[COMRAM] PTR const struct .
  4647 ;;		 -> motor_1$dc_motor(2), motor_1(2), relay_turn_toggle@pin_obj(1), led_turn_toggle@pin_obj(1), 
  4648 ;; Auto vars:     Size  Location     Type
  4649 ;;  ret             1   22[COMRAM] unsigned char 
  4650 ;; Return value:  Size  Location     Type
  4651 ;;                  1    wreg      unsigned char 
  4652 ;; Registers used:
  4653 ;;		wreg, fsr2l, fsr2h, status,2, status,0, prodl, prodh
  4654 ;; Tracked objects:
  4655 ;;		On entry : 0/0
  4656 ;;		On exit  : 0/0
  4657 ;;		Unchanged: 0/0
  4658 ;; Data sizes:     COMRAM   BANK0   BANK1   BANK2   BANK3   BANK4   BANK5   BANK6   BANK7   BANK8   BANK9  BANK10  BANK1
      +1  BANK12  BANK13  BANK14  BANK15
  4659 ;;      Params:         1       0       0       0       0       0       0       0       0       0       0       0       
      +0       0       0       0       0
  4660 ;;      Locals:         1       0       0       0       0       0       0       0       0       0       0       0       
      +0       0       0       0       0
  4661 ;;      Temps:          4       0       0       0       0       0       0       0       0       0       0       0       
      +0       0       0       0       0
  4662 ;;      Totals:         6       0       0       0       0       0       0       0       0       0       0       0       
      +0       0       0       0       0
  4663 ;;Total ram usage:        6 bytes
  4664 ;; Hardware stack levels used: 1
  4665 ;; Hardware stack levels required when called: 5
  4666 ;; This function calls:
  4667 ;;		Nothing
  4668 ;; This function is called by:
  4669 ;;		_dc_motor_move_toggle
  4670 ;;		_relay_turn_toggle
  4671 ;; This function uses a non-reentrant model
  4672 ;;
  4673                           
  4674                           	psect	text21
  4675   0025A2                     __ptext21:
  4676                           	callstack 0
  4677   0025A2                     _gpio_pin_toogle_logic:
  4678                           	callstack 24
  4679   0025A2                     
  4680                           ;MCAL_Layer/GPIO/hal_gpio.c: 108: std_ReturneType gpio_pin_toogle_logic(const pin_config
      +                          _t *_pin_config);MCAL_Layer/GPIO/hal_gpio.c: 109: {;MCAL_Layer/GPIO/hal_gpio.c: 110:    
      +                           std_ReturneType ret = (std_ReturneType)0x01 ;
  4681   0025A2  0E01               	movlw	1
  4682   0025A4  6E17               	movwf	gpio_pin_toogle_logic@ret^0,c
  4683                           
  4684                           ;MCAL_Layer/GPIO/hal_gpio.c: 111:     if((_pin_config == ((void*)0)) || (_pin_config->pi
      +                          n > 8 -1))
  4685   0025A6  5012               	movf	gpio_pin_toogle_logic@_pin_config^0,w,c
  4686   0025A8  B4D8               	btfsc	status,2,c
  4687   0025AA  EFD9  F012         	goto	u3521
  4688   0025AE  EFDB  F012         	goto	u3520
  4689   0025B2                     u3521:
  4690   0025B2  EFEB  F012         	goto	l4657
  4691   0025B6                     u3520:
  4692   0025B6  5012               	movf	gpio_pin_toogle_logic@_pin_config^0,w,c
  4693   0025B8  6ED9               	movwf	fsr2l,c
  4694   0025BA  6ADA               	clrf	fsr2h,c
  4695   0025BC  30DF               	rrcf	223,w,c
  4696   0025BE  32E8               	rrcf	wreg,f,c
  4697   0025C0  32E8               	rrcf	wreg,f,c
  4698   0025C2  0B07               	andlw	7
  4699   0025C4  6E13               	movwf	??_gpio_pin_toogle_logic^0,c
  4700   0025C6  0E07               	movlw	7
  4701   0025C8  6413               	cpfsgt	??_gpio_pin_toogle_logic^0,c
  4702   0025CA  EFE9  F012         	goto	u3531
  4703   0025CE  EFEB  F012         	goto	u3530
  4704   0025D2                     u3531:
  4705   0025D2  EFEF  F012         	goto	l4659
  4706   0025D6                     u3530:
  4707   0025D6                     l4657:
  4708                           
  4709                           ;MCAL_Layer/GPIO/hal_gpio.c: 112:         ret = (std_ReturneType)0x00 ;
  4710   0025D6  0E00               	movlw	0
  4711   0025D8  6E17               	movwf	gpio_pin_toogle_logic@ret^0,c
  4712   0025DA  EF15  F013         	goto	l4661
  4713   0025DE                     l4659:
  4714                           
  4715                           ;MCAL_Layer/GPIO/hal_gpio.c: 114:     {;MCAL_Layer/GPIO/hal_gpio.c: 115:         ((*((vo
      +                          latile uint8 *)(lat_register[_pin_config->port]))) ^= ((uint8)1 << _pin_config->pin));
  4716   0025DE  5012               	movf	gpio_pin_toogle_logic@_pin_config^0,w,c
  4717   0025E0  6ED9               	movwf	fsr2l,c
  4718   0025E2  6ADA               	clrf	fsr2h,c
  4719   0025E4  30DF               	rrcf	223,w,c
  4720   0025E6  32E8               	rrcf	wreg,f,c
  4721   0025E8  32E8               	rrcf	wreg,f,c
  4722   0025EA  0B07               	andlw	7
  4723   0025EC  6E13               	movwf	??_gpio_pin_toogle_logic^0,c
  4724   0025EE  0E01               	movlw	1
  4725   0025F0  6E14               	movwf	(??_gpio_pin_toogle_logic+1)^0,c
  4726   0025F2  2A13               	incf	??_gpio_pin_toogle_logic^0,f,c
  4727   0025F4  EFFE  F012         	goto	u3544
  4728   0025F8                     u3545:
  4729   0025F8  90D8               	bcf	status,0,c
  4730   0025FA  3614               	rlcf	(??_gpio_pin_toogle_logic+1)^0,f,c
  4731   0025FC                     u3544:
  4732   0025FC  2E13               	decfsz	??_gpio_pin_toogle_logic^0,f,c
  4733   0025FE  EFFC  F012         	goto	u3545
  4734   002602  5012               	movf	gpio_pin_toogle_logic@_pin_config^0,w,c
  4735   002604  6ED9               	movwf	fsr2l,c
  4736   002606  6ADA               	clrf	fsr2h,c
  4737   002608  50DF               	movf	223,w,c
  4738   00260A  0B07               	andlw	7
  4739   00260C  0D02               	mullw	2
  4740   00260E  50F3               	movf	243,w,c
  4741   002610  0F8A               	addlw	low _lat_register
  4742   002612  6ED9               	movwf	fsr2l,c
  4743   002614  6ADA               	clrf	fsr2h,c
  4744   002616  CFDE F015          	movff	postinc2,??_gpio_pin_toogle_logic+2
  4745   00261A  CFDD F016          	movff	postdec2,??_gpio_pin_toogle_logic+3
  4746   00261E  C015  FFD9         	movff	??_gpio_pin_toogle_logic+2,fsr2l
  4747   002622  C016  FFDA         	movff	??_gpio_pin_toogle_logic+3,fsr2h
  4748   002626  5014               	movf	(??_gpio_pin_toogle_logic+1)^0,w,c
  4749   002628  1ADF               	xorwf	indf2,f,c
  4750   00262A                     l4661:
  4751                           
  4752                           ;MCAL_Layer/GPIO/hal_gpio.c: 117:     return ret ;
  4753   00262A  5017               	movf	gpio_pin_toogle_logic@ret^0,w,c
  4754   00262C  0012               	return		;funcret
  4755   00262E                     __end_of_gpio_pin_toogle_logic:
  4756                           	callstack 0
  4757                           
  4758 ;; *************** function _dc_motor_move_right *****************
  4759 ;; Defined at:
  4760 ;;		line 21 in file "ECU_Layer/DC_MOTOR/ecu_dc_motor.c"
  4761 ;; Parameters:    Size  Location     Type
  4762 ;;  _dc_motor       1   25[COMRAM] PTR const struct .
  4763 ;;		 -> motor_1(2), 
  4764 ;; Auto vars:     Size  Location     Type
  4765 ;;  ret             1   26[COMRAM] unsigned char 
  4766 ;; Return value:  Size  Location     Type
  4767 ;;                  1    wreg      unsigned char 
  4768 ;; Registers used:
  4769 ;;		wreg, fsr2l, fsr2h, status,2, status,0, prodl, prodh, cstack
  4770 ;; Tracked objects:
  4771 ;;		On entry : 0/0
  4772 ;;		On exit  : 0/0
  4773 ;;		Unchanged: 0/0
  4774 ;; Data sizes:     COMRAM   BANK0   BANK1   BANK2   BANK3   BANK4   BANK5   BANK6   BANK7   BANK8   BANK9  BANK10  BANK1
      +1  BANK12  BANK13  BANK14  BANK15
  4775 ;;      Params:         1       0       0       0       0       0       0       0       0       0       0       0       
      +0       0       0       0       0
  4776 ;;      Locals:         1       0       0       0       0       0       0       0       0       0       0       0       
      +0       0       0       0       0
  4777 ;;      Temps:          0       0       0       0       0       0       0       0       0       0       0       0       
      +0       0       0       0       0
  4778 ;;      Totals:         2       0       0       0       0       0       0       0       0       0       0       0       
      +0       0       0       0       0
  4779 ;;Total ram usage:        2 bytes
  4780 ;; Hardware stack levels used: 1
  4781 ;; Hardware stack levels required when called: 6
  4782 ;; This function calls:
  4783 ;;		_gpio_pin_write_logic
  4784 ;; This function is called by:
  4785 ;;		_main
  4786 ;; This function uses a non-reentrant model
  4787 ;;
  4788                           
  4789                           	psect	text22
  4790   002FB6                     __ptext22:
  4791                           	callstack 0
  4792   002FB6                     _dc_motor_move_right:
  4793                           	callstack 24
  4794   002FB6                     
  4795                           ;ECU_Layer/DC_MOTOR/ecu_dc_motor.c: 24:     if(((void*)0) == _dc_motor)
  4796   002FB6  501A               	movf	dc_motor_move_right@_dc_motor^0,w,c
  4797   002FB8  A4D8               	btfss	status,2,c
  4798   002FBA  EFE1  F017         	goto	u3711
  4799   002FBE  EFE3  F017         	goto	u3710
  4800   002FC2                     u3711:
  4801   002FC2  EFE7  F017         	goto	l4825
  4802   002FC6                     u3710:
  4803   002FC6                     
  4804                           ;ECU_Layer/DC_MOTOR/ecu_dc_motor.c: 25:         ret = (std_ReturneType)0x00 ;
  4805   002FC6  0E00               	movlw	0
  4806   002FC8  6E1B               	movwf	dc_motor_move_right@ret^0,c
  4807   002FCA  EFF7  F017         	goto	l4829
  4808   002FCE                     l4825:
  4809                           
  4810                           ;ECU_Layer/DC_MOTOR/ecu_dc_motor.c: 27:     {;ECU_Layer/DC_MOTOR/ecu_dc_motor.c: 28:    
      +                               ret = gpio_pin_write_logic(&(_dc_motor->dc_motor[0]) , HIGH);
  4811   002FCE  C01A  F012         	movff	dc_motor_move_right@_dc_motor,gpio_pin_write_logic@_pin_config
  4812   002FD2  0E01               	movlw	1
  4813   002FD4  6E13               	movwf	gpio_pin_write_logic@logic^0,c
  4814   002FD6  EC8A  F00E         	call	_gpio_pin_write_logic	;wreg free
  4815   002FDA  6E1B               	movwf	dc_motor_move_right@ret^0,c
  4816                           
  4817                           ;ECU_Layer/DC_MOTOR/ecu_dc_motor.c: 29:         ret = gpio_pin_write_logic(&(_dc_motor->
      +                          dc_motor[1]) , LOW);
  4818   002FDC  281A               	incf	dc_motor_move_right@_dc_motor^0,w,c
  4819   002FDE  6E12               	movwf	gpio_pin_write_logic@_pin_config^0,c
  4820   002FE0  0E00               	movlw	0
  4821   002FE2  6E13               	movwf	gpio_pin_write_logic@logic^0,c
  4822   002FE4  EC8A  F00E         	call	_gpio_pin_write_logic	;wreg free
  4823   002FE8  6E1B               	movwf	dc_motor_move_right@ret^0,c
  4824   002FEA                     
  4825                           ;ECU_Layer/DC_MOTOR/ecu_dc_motor.c: 30:         ret = (std_ReturneType)0x01 ;
  4826   002FEA  0E01               	movlw	1
  4827   002FEC  6E1B               	movwf	dc_motor_move_right@ret^0,c
  4828   002FEE                     l4829:
  4829                           
  4830                           ;ECU_Layer/DC_MOTOR/ecu_dc_motor.c: 32:     return ret ;
  4831   002FEE  501B               	movf	dc_motor_move_right@ret^0,w,c
  4832   002FF0  0012               	return		;funcret
  4833   002FF2                     __end_of_dc_motor_move_right:
  4834                           	callstack 0
  4835                           
  4836 ;; *************** function _dc_motor_move_left *****************
  4837 ;; Defined at:
  4838 ;;		line 37 in file "ECU_Layer/DC_MOTOR/ecu_dc_motor.c"
  4839 ;; Parameters:    Size  Location     Type
  4840 ;;  _dc_motor       1   25[COMRAM] PTR const struct .
  4841 ;;		 -> motor_1(2), 
  4842 ;; Auto vars:     Size  Location     Type
  4843 ;;  ret             1   26[COMRAM] unsigned char 
  4844 ;; Return value:  Size  Location     Type
  4845 ;;                  1    wreg      unsigned char 
  4846 ;; Registers used:
  4847 ;;		wreg, fsr2l, fsr2h, status,2, status,0, prodl, prodh, cstack
  4848 ;; Tracked objects:
  4849 ;;		On entry : 0/0
  4850 ;;		On exit  : 0/0
  4851 ;;		Unchanged: 0/0
  4852 ;; Data sizes:     COMRAM   BANK0   BANK1   BANK2   BANK3   BANK4   BANK5   BANK6   BANK7   BANK8   BANK9  BANK10  BANK1
      +1  BANK12  BANK13  BANK14  BANK15
  4853 ;;      Params:         1       0       0       0       0       0       0       0       0       0       0       0       
      +0       0       0       0       0
  4854 ;;      Locals:         1       0       0       0       0       0       0       0       0       0       0       0       
      +0       0       0       0       0
  4855 ;;      Temps:          0       0       0       0       0       0       0       0       0       0       0       0       
      +0       0       0       0       0
  4856 ;;      Totals:         2       0       0       0       0       0       0       0       0       0       0       0       
      +0       0       0       0       0
  4857 ;;Total ram usage:        2 bytes
  4858 ;; Hardware stack levels used: 1
  4859 ;; Hardware stack levels required when called: 6
  4860 ;; This function calls:
  4861 ;;		_gpio_pin_write_logic
  4862 ;; This function is called by:
  4863 ;;		_main
  4864 ;; This function uses a non-reentrant model
  4865 ;;
  4866                           
  4867                           	psect	text23
  4868   002FF2                     __ptext23:
  4869                           	callstack 0
  4870   002FF2                     _dc_motor_move_left:
  4871                           	callstack 24
  4872   002FF2                     
  4873                           ;ECU_Layer/DC_MOTOR/ecu_dc_motor.c: 40:     if(((void*)0) == _dc_motor)
  4874   002FF2  501A               	movf	dc_motor_move_left@_dc_motor^0,w,c
  4875   002FF4  A4D8               	btfss	status,2,c
  4876   002FF6  EFFF  F017         	goto	u3721
  4877   002FFA  EF01  F018         	goto	u3720
  4878   002FFE                     u3721:
  4879   002FFE  EF05  F018         	goto	l4837
  4880   003002                     u3720:
  4881   003002                     
  4882                           ;ECU_Layer/DC_MOTOR/ecu_dc_motor.c: 41:         ret = (std_ReturneType)0x00 ;
  4883   003002  0E00               	movlw	0
  4884   003004  6E1B               	movwf	dc_motor_move_left@ret^0,c
  4885   003006  EF15  F018         	goto	l4841
  4886   00300A                     l4837:
  4887                           
  4888                           ;ECU_Layer/DC_MOTOR/ecu_dc_motor.c: 43:     {;ECU_Layer/DC_MOTOR/ecu_dc_motor.c: 44:    
      +                              ret = gpio_pin_write_logic(&(_dc_motor->dc_motor[0]) , LOW);
  4889   00300A  C01A  F012         	movff	dc_motor_move_left@_dc_motor,gpio_pin_write_logic@_pin_config
  4890   00300E  0E00               	movlw	0
  4891   003010  6E13               	movwf	gpio_pin_write_logic@logic^0,c
  4892   003012  EC8A  F00E         	call	_gpio_pin_write_logic	;wreg free
  4893   003016  6E1B               	movwf	dc_motor_move_left@ret^0,c
  4894                           
  4895                           ;ECU_Layer/DC_MOTOR/ecu_dc_motor.c: 45:        ret = gpio_pin_write_logic(&(_dc_motor->d
      +                          c_motor[1]) , HIGH);
  4896   003018  281A               	incf	dc_motor_move_left@_dc_motor^0,w,c
  4897   00301A  6E12               	movwf	gpio_pin_write_logic@_pin_config^0,c
  4898   00301C  0E01               	movlw	1
  4899   00301E  6E13               	movwf	gpio_pin_write_logic@logic^0,c
  4900   003020  EC8A  F00E         	call	_gpio_pin_write_logic	;wreg free
  4901   003024  6E1B               	movwf	dc_motor_move_left@ret^0,c
  4902   003026                     
  4903                           ;ECU_Layer/DC_MOTOR/ecu_dc_motor.c: 46:        ret = (std_ReturneType)0x01 ;
  4904   003026  0E01               	movlw	1
  4905   003028  6E1B               	movwf	dc_motor_move_left@ret^0,c
  4906   00302A                     l4841:
  4907                           
  4908                           ;ECU_Layer/DC_MOTOR/ecu_dc_motor.c: 48:     return ret ;
  4909   00302A  501B               	movf	dc_motor_move_left@ret^0,w,c
  4910   00302C  0012               	return		;funcret
  4911   00302E                     __end_of_dc_motor_move_left:
  4912                           	callstack 0
  4913                           
  4914 ;; *************** function _gpio_pin_write_logic *****************
  4915 ;; Defined at:
  4916 ;;		line 61 in file "MCAL_Layer/GPIO/hal_gpio.c"
  4917 ;; Parameters:    Size  Location     Type
  4918 ;;  _pin_config     1   17[COMRAM] PTR const struct .
  4919 ;;		 -> motor_1$dc_motor(2), motor_1(2), KeyPad1$keypad_row_pins(4), KeyPad1(8), 
  4920 ;;		 -> lcd_1$lcd_data(4), lcd_1$lcd_en(1), lcd_1$lcd_rs(1), lcd_1(6), 
  4921 ;;		 -> relay_turn_off@pin_obj(1), relay_turn_on@pin_obj(1), led_turn_off@pin_obj(1), led_turn_on@pin_obj(1), 
  4922 ;;  logic           1   18[COMRAM] unsigned char 
  4923 ;; Auto vars:     Size  Location     Type
  4924 ;;  ret             1   24[COMRAM] unsigned char 
  4925 ;; Return value:  Size  Location     Type
  4926 ;;                  1    wreg      unsigned char 
  4927 ;; Registers used:
  4928 ;;		wreg, fsr2l, fsr2h, status,2, status,0, prodl, prodh
  4929 ;; Tracked objects:
  4930 ;;		On entry : 0/0
  4931 ;;		On exit  : 0/0
  4932 ;;		Unchanged: 0/0
  4933 ;; Data sizes:     COMRAM   BANK0   BANK1   BANK2   BANK3   BANK4   BANK5   BANK6   BANK7   BANK8   BANK9  BANK10  BANK1
      +1  BANK12  BANK13  BANK14  BANK15
  4934 ;;      Params:         2       0       0       0       0       0       0       0       0       0       0       0       
      +0       0       0       0       0
  4935 ;;      Locals:         1       0       0       0       0       0       0       0       0       0       0       0       
      +0       0       0       0       0
  4936 ;;      Temps:          5       0       0       0       0       0       0       0       0       0       0       0       
      +0       0       0       0       0
  4937 ;;      Totals:         8       0       0       0       0       0       0       0       0       0       0       0       
      +0       0       0       0       0
  4938 ;;Total ram usage:        8 bytes
  4939 ;; Hardware stack levels used: 1
  4940 ;; Hardware stack levels required when called: 5
  4941 ;; This function calls:
  4942 ;;		Nothing
  4943 ;; This function is called by:
  4944 ;;		_lcd_4_send_command
  4945 ;;		_lcd_4_send_char_data
  4946 ;;		_lcd_send_4bit
  4947 ;;		_lcd_4bit_send_enable_signale
  4948 ;;		_dc_motor_move_right
  4949 ;;		_dc_motor_move_left
  4950 ;;		_dc_motor_stop
  4951 ;;		_keypad_get_value
  4952 ;;		_led_turn_on
  4953 ;;		_led_turn_off
  4954 ;;		_gpio_pin_intialize
  4955 ;;		_seven_segment_write_number
  4956 ;;		_lcd_8_send_command
  4957 ;;		_lcd_8_send_char_data
  4958 ;;		_lcd_8bit_send_enable_signale
  4959 ;;		_relay_turn_on
  4960 ;;		_relay_turn_off
  4961 ;; This function uses a non-reentrant model
  4962 ;;
  4963                           
  4964                           	psect	text24
  4965   001D14                     __ptext24:
  4966                           	callstack 0
  4967   001D14                     _gpio_pin_write_logic:
  4968                           	callstack 24
  4969   001D14                     
  4970                           ;MCAL_Layer/GPIO/hal_gpio.c: 61: std_ReturneType gpio_pin_write_logic(const pin_config_t
      +                           *_pin_config , uint8 logic);MCAL_Layer/GPIO/hal_gpio.c: 62: {;MCAL_Layer/GPIO/hal_gpio.
      +                          c: 63:     std_ReturneType ret = (std_ReturneType)0x01 ;
  4971   001D14  0E01               	movlw	1
  4972   001D16  6E19               	movwf	gpio_pin_write_logic@ret^0,c
  4973                           
  4974                           ;MCAL_Layer/GPIO/hal_gpio.c: 64:     if((_pin_config == ((void*)0)) || (_pin_config->pin
      +                           > 8 -1))
  4975   001D18  5012               	movf	gpio_pin_write_logic@_pin_config^0,w,c
  4976   001D1A  B4D8               	btfsc	status,2,c
  4977   001D1C  EF92  F00E         	goto	u2811
  4978   001D20  EF94  F00E         	goto	u2810
  4979   001D24                     u2811:
  4980   001D24  EFA4  F00E         	goto	l4147
  4981   001D28                     u2810:
  4982   001D28  5012               	movf	gpio_pin_write_logic@_pin_config^0,w,c
  4983   001D2A  6ED9               	movwf	fsr2l,c
  4984   001D2C  6ADA               	clrf	fsr2h,c
  4985   001D2E  30DF               	rrcf	223,w,c
  4986   001D30  32E8               	rrcf	wreg,f,c
  4987   001D32  32E8               	rrcf	wreg,f,c
  4988   001D34  0B07               	andlw	7
  4989   001D36  6E14               	movwf	??_gpio_pin_write_logic^0,c
  4990   001D38  0E07               	movlw	7
  4991   001D3A  6414               	cpfsgt	??_gpio_pin_write_logic^0,c
  4992   001D3C  EFA2  F00E         	goto	u2821
  4993   001D40  EFA4  F00E         	goto	u2820
  4994   001D44                     u2821:
  4995   001D44  EFFB  F00E         	goto	l4155
  4996   001D48                     u2820:
  4997   001D48                     l4147:
  4998                           
  4999                           ;MCAL_Layer/GPIO/hal_gpio.c: 65:         ret = (std_ReturneType)0x00 ;
  5000   001D48  0E00               	movlw	0
  5001   001D4A  6E19               	movwf	gpio_pin_write_logic@ret^0,c
  5002   001D4C  EF10  F00F         	goto	l4157
  5003   001D50                     l4149:
  5004                           
  5005                           ;MCAL_Layer/GPIO/hal_gpio.c: 71:                 ((*((volatile uint8 *)(lat_register[_pi
      +                          n_config->port]))) &= ~((uint8)1 << _pin_config->pin));
  5006   001D50  5012               	movf	gpio_pin_write_logic@_pin_config^0,w,c
  5007   001D52  6ED9               	movwf	fsr2l,c
  5008   001D54  6ADA               	clrf	fsr2h,c
  5009   001D56  30DF               	rrcf	223,w,c
  5010   001D58  32E8               	rrcf	wreg,f,c
  5011   001D5A  32E8               	rrcf	wreg,f,c
  5012   001D5C  0B07               	andlw	7
  5013   001D5E  6E14               	movwf	??_gpio_pin_write_logic^0,c
  5014   001D60  0E01               	movlw	1
  5015   001D62  6E15               	movwf	(??_gpio_pin_write_logic+1)^0,c
  5016   001D64  2A14               	incf	??_gpio_pin_write_logic^0,f,c
  5017   001D66  EFB7  F00E         	goto	u2834
  5018   001D6A                     u2835:
  5019   001D6A  90D8               	bcf	status,0,c
  5020   001D6C  3615               	rlcf	(??_gpio_pin_write_logic+1)^0,f,c
  5021   001D6E                     u2834:
  5022   001D6E  2E14               	decfsz	??_gpio_pin_write_logic^0,f,c
  5023   001D70  EFB5  F00E         	goto	u2835
  5024   001D74  5015               	movf	(??_gpio_pin_write_logic+1)^0,w,c
  5025   001D76  0AFF               	xorlw	255
  5026   001D78  6E16               	movwf	(??_gpio_pin_write_logic+2)^0,c
  5027   001D7A  5012               	movf	gpio_pin_write_logic@_pin_config^0,w,c
  5028   001D7C  6ED9               	movwf	fsr2l,c
  5029   001D7E  6ADA               	clrf	fsr2h,c
  5030   001D80  50DF               	movf	223,w,c
  5031   001D82  0B07               	andlw	7
  5032   001D84  0D02               	mullw	2
  5033   001D86  50F3               	movf	243,w,c
  5034   001D88  0F8A               	addlw	low _lat_register
  5035   001D8A  6ED9               	movwf	fsr2l,c
  5036   001D8C  6ADA               	clrf	fsr2h,c
  5037   001D8E  CFDE F017          	movff	postinc2,??_gpio_pin_write_logic+3
  5038   001D92  CFDD F018          	movff	postdec2,??_gpio_pin_write_logic+4
  5039   001D96  C017  FFD9         	movff	??_gpio_pin_write_logic+3,fsr2l
  5040   001D9A  C018  FFDA         	movff	??_gpio_pin_write_logic+4,fsr2h
  5041   001D9E  5016               	movf	(??_gpio_pin_write_logic+2)^0,w,c
  5042   001DA0  16DF               	andwf	indf2,f,c
  5043                           
  5044                           ;MCAL_Layer/GPIO/hal_gpio.c: 72:                 break;
  5045   001DA2  EF10  F00F         	goto	l4157
  5046   001DA6                     l4151:
  5047                           
  5048                           ;MCAL_Layer/GPIO/hal_gpio.c: 74:                 ((*((volatile uint8 *)(lat_register[_pi
      +                          n_config->port]))) |= ((uint8)1 << _pin_config->pin));
  5049   001DA6  5012               	movf	gpio_pin_write_logic@_pin_config^0,w,c
  5050   001DA8  6ED9               	movwf	fsr2l,c
  5051   001DAA  6ADA               	clrf	fsr2h,c
  5052   001DAC  30DF               	rrcf	223,w,c
  5053   001DAE  32E8               	rrcf	wreg,f,c
  5054   001DB0  32E8               	rrcf	wreg,f,c
  5055   001DB2  0B07               	andlw	7
  5056   001DB4  6E14               	movwf	??_gpio_pin_write_logic^0,c
  5057   001DB6  0E01               	movlw	1
  5058   001DB8  6E15               	movwf	(??_gpio_pin_write_logic+1)^0,c
  5059   001DBA  2A14               	incf	??_gpio_pin_write_logic^0,f,c
  5060   001DBC  EFE2  F00E         	goto	u2844
  5061   001DC0                     u2845:
  5062   001DC0  90D8               	bcf	status,0,c
  5063   001DC2  3615               	rlcf	(??_gpio_pin_write_logic+1)^0,f,c
  5064   001DC4                     u2844:
  5065   001DC4  2E14               	decfsz	??_gpio_pin_write_logic^0,f,c
  5066   001DC6  EFE0  F00E         	goto	u2845
  5067   001DCA  5012               	movf	gpio_pin_write_logic@_pin_config^0,w,c
  5068   001DCC  6ED9               	movwf	fsr2l,c
  5069   001DCE  6ADA               	clrf	fsr2h,c
  5070   001DD0  50DF               	movf	223,w,c
  5071   001DD2  0B07               	andlw	7
  5072   001DD4  0D02               	mullw	2
  5073   001DD6  50F3               	movf	243,w,c
  5074   001DD8  0F8A               	addlw	low _lat_register
  5075   001DDA  6ED9               	movwf	fsr2l,c
  5076   001DDC  6ADA               	clrf	fsr2h,c
  5077   001DDE  CFDE F016          	movff	postinc2,??_gpio_pin_write_logic+2
  5078   001DE2  CFDD F017          	movff	postdec2,??_gpio_pin_write_logic+3
  5079   001DE6  C016  FFD9         	movff	??_gpio_pin_write_logic+2,fsr2l
  5080   001DEA  C017  FFDA         	movff	??_gpio_pin_write_logic+3,fsr2h
  5081   001DEE  5015               	movf	(??_gpio_pin_write_logic+1)^0,w,c
  5082   001DF0  12DF               	iorwf	indf2,f,c
  5083                           
  5084                           ;MCAL_Layer/GPIO/hal_gpio.c: 75:                 break;
  5085   001DF2  EF10  F00F         	goto	l4157
  5086   001DF6                     l4155:
  5087   001DF6  5013               	movf	gpio_pin_write_logic@logic^0,w,c
  5088   001DF8  6E14               	movwf	??_gpio_pin_write_logic^0,c
  5089   001DFA  6A15               	clrf	(??_gpio_pin_write_logic+1)^0,c
  5090                           
  5091                           ; Switch on 2 bytes has been partitioned into a top level switch of size 1, and 1 sub-sw
      +                          itches
  5092                           ; Switch size 1, requested type "simple"
  5093                           ; Number of cases is 1, Range of values is 0 to 0
  5094                           ; switch strategies available:
  5095                           ; Name         Instructions Cycles
  5096                           ; simple_byte            4     3 (average)
  5097                           ;	Chosen strategy is simple_byte
  5098   001DFC  5015               	movf	(??_gpio_pin_write_logic+1)^0,w,c
  5099   001DFE  0A00               	xorlw	0	; case 0
  5100   001E00  B4D8               	btfsc	status,2,c
  5101   001E02  EF05  F00F         	goto	l6871
  5102   001E06  EFA4  F00E         	goto	l4147
  5103   001E0A                     l6871:
  5104                           
  5105                           ; Switch size 1, requested type "simple"
  5106                           ; Number of cases is 2, Range of values is 0 to 1
  5107                           ; switch strategies available:
  5108                           ; Name         Instructions Cycles
  5109                           ; simple_byte            7     4 (average)
  5110                           ;	Chosen strategy is simple_byte
  5111   001E0A  5014               	movf	??_gpio_pin_write_logic^0,w,c
  5112   001E0C  0A00               	xorlw	0	; case 0
  5113   001E0E  B4D8               	btfsc	status,2,c
  5114   001E10  EFA8  F00E         	goto	l4149
  5115   001E14  0A01               	xorlw	1	; case 1
  5116   001E16  B4D8               	btfsc	status,2,c
  5117   001E18  EFD3  F00E         	goto	l4151
  5118   001E1C  EFA4  F00E         	goto	l4147
  5119   001E20                     l4157:
  5120                           
  5121                           ;MCAL_Layer/GPIO/hal_gpio.c: 80:     return ret ;
  5122   001E20  5019               	movf	gpio_pin_write_logic@ret^0,w,c
  5123   001E22  0012               	return		;funcret
  5124   001E24                     __end_of_gpio_pin_write_logic:
  5125                           	callstack 0
  5126                           
  5127 ;; *************** function _convert_short_to_string *****************
  5128 ;; Defined at:
  5129 ;;		line 317 in file "ECU_Layer/Chr_LCD/ecu_chr_lcd.c"
  5130 ;; Parameters:    Size  Location     Type
  5131 ;;  value           2    0[BANK0 ] unsigned short 
  5132 ;;  str             1    2[BANK0 ] PTR unsigned char 
  5133 ;;		 -> YourPass(6), 
  5134 ;; Auto vars:     Size  Location     Type
  5135 ;;  ret             1   47[COMRAM] unsigned char 
  5136 ;; Return value:  Size  Location     Type
  5137 ;;                  1    wreg      unsigned char 
  5138 ;; Registers used:
  5139 ;;		wreg, fsr1l, fsr1h, fsr2l, fsr2h, status,2, status,0, tblptrl, tblptrh, tblptru, cstack
  5140 ;; Tracked objects:
  5141 ;;		On entry : 0/0
  5142 ;;		On exit  : 0/0
  5143 ;;		Unchanged: 0/0
  5144 ;; Data sizes:     COMRAM   BANK0   BANK1   BANK2   BANK3   BANK4   BANK5   BANK6   BANK7   BANK8   BANK9  BANK10  BANK1
      +1  BANK12  BANK13  BANK14  BANK15
  5145 ;;      Params:         0       3       0       0       0       0       0       0       0       0       0       0       
      +0       0       0       0       0
  5146 ;;      Locals:         1       0       0       0       0       0       0       0       0       0       0       0       
      +0       0       0       0       0
  5147 ;;      Temps:          0       0       0       0       0       0       0       0       0       0       0       0       
      +0       0       0       0       0
  5148 ;;      Totals:         1       3       0       0       0       0       0       0       0       0       0       0       
      +0       0       0       0       0
  5149 ;;Total ram usage:        4 bytes
  5150 ;; Hardware stack levels used: 1
  5151 ;; Hardware stack levels required when called: 10
  5152 ;; This function calls:
  5153 ;;		_memset
  5154 ;;		_sprintf
  5155 ;; This function is called by:
  5156 ;;		_main
  5157 ;; This function uses a non-reentrant model
  5158 ;;
  5159                           
  5160                           	psect	text25
  5161   002E60                     __ptext25:
  5162                           	callstack 0
  5163   002E60                     _convert_short_to_string:
  5164                           	callstack 20
  5165   002E60                     
  5166                           ;ECU_Layer/Chr_LCD/ecu_chr_lcd.c: 317: std_ReturneType convert_short_to_string(uint16 va
      +                          lue , uint8 *str);ECU_Layer/Chr_LCD/ecu_chr_lcd.c: 318: {;ECU_Layer/Chr_LCD/ecu_chr_lcd.
      +                          c: 319:     std_ReturneType ret = (std_ReturneType)0x01 ;
  5167   002E60  0E01               	movlw	1
  5168   002E62  6E30               	movwf	convert_short_to_string@ret^0,c
  5169                           
  5170                           ;ECU_Layer/Chr_LCD/ecu_chr_lcd.c: 320:     if(((void*)0) == str)
  5171   002E64  0100               	movlb	0	; () banked
  5172   002E66  51FF               	movf	convert_short_to_string@str& (0+255),w,b
  5173   002E68  A4D8               	btfss	status,2,c
  5174   002E6A  EF39  F017         	goto	u5871
  5175   002E6E  EF3B  F017         	goto	u5870
  5176   002E72                     u5871:
  5177   002E72  EF3F  F017         	goto	l6555
  5178   002E76                     u5870:
  5179   002E76                     
  5180                           ; BSR set to: 0
  5181                           ;ECU_Layer/Chr_LCD/ecu_chr_lcd.c: 321:         ret = (std_ReturneType)0x00 ;
  5182   002E76  0E00               	movlw	0
  5183   002E78  6E30               	movwf	convert_short_to_string@ret^0,c
  5184   002E7A  EF56  F017         	goto	l6559
  5185   002E7E                     l6555:
  5186                           
  5187                           ; BSR set to: 0
  5188                           ;ECU_Layer/Chr_LCD/ecu_chr_lcd.c: 323:     {;ECU_Layer/Chr_LCD/ecu_chr_lcd.c: 324:      
      +                             memset(str , '\0' , 6);
  5189   002E7E  C0FF  F012         	movff	convert_short_to_string@str,memset@dest
  5190   002E82  0E00               	movlw	0
  5191   002E84  6E14               	movwf	(memset@c+1)^0,c
  5192   002E86  0E00               	movlw	0
  5193   002E88  6E13               	movwf	memset@c^0,c
  5194   002E8A  0E00               	movlw	0
  5195   002E8C  6E16               	movwf	(memset@n+1)^0,c
  5196   002E8E  0E06               	movlw	6
  5197   002E90  6E15               	movwf	memset@n^0,c
  5198   002E92  EC65  F018         	call	_memset	;wreg free
  5199   002E96                     
  5200                           ;ECU_Layer/Chr_LCD/ecu_chr_lcd.c: 325:         sprintf((char *)str , "%i" , value);
  5201   002E96  C0FF  F120         	movff	convert_short_to_string@str,sprintf@s
  5202   002E9A  0EBA               	movlw	low STR_1
  5203   002E9C  0101               	movlb	1	; () banked
  5204   002E9E  6F21               	movwf	sprintf@fmt& (0+255),b
  5205   002EA0  C0FD  F122         	movff	convert_short_to_string@value,?_sprintf+2
  5206   002EA4  C0FE  F123         	movff	convert_short_to_string@value+1,?_sprintf+3
  5207   002EA8  EC7C  F017         	call	_sprintf	;wreg free
  5208   002EAC                     l6559:
  5209                           
  5210                           ;ECU_Layer/Chr_LCD/ecu_chr_lcd.c: 327:     return ret ;
  5211   002EAC  5030               	movf	convert_short_to_string@ret^0,w,c
  5212   002EAE  0012               	return		;funcret
  5213   002EB0                     __end_of_convert_short_to_string:
  5214                           	callstack 0
  5215                           
  5216 ;; *************** function _convert_byte_to_string *****************
  5217 ;; Defined at:
  5218 ;;		line 302 in file "ECU_Layer/Chr_LCD/ecu_chr_lcd.c"
  5219 ;; Parameters:    Size  Location     Type
  5220 ;;  value           1    wreg     unsigned char 
  5221 ;;  str             1   47[COMRAM] PTR unsigned char 
  5222 ;;		 -> result_txt(6), 
  5223 ;; Auto vars:     Size  Location     Type
  5224 ;;  value           1    0[BANK0 ] unsigned char 
  5225 ;;  ret             1    1[BANK0 ] unsigned char 
  5226 ;; Return value:  Size  Location     Type
  5227 ;;                  1    wreg      unsigned char 
  5228 ;; Registers used:
  5229 ;;		wreg, fsr1l, fsr1h, fsr2l, fsr2h, status,2, status,0, tblptrl, tblptrh, tblptru, cstack
  5230 ;; Tracked objects:
  5231 ;;		On entry : 0/0
  5232 ;;		On exit  : 0/0
  5233 ;;		Unchanged: 0/0
  5234 ;; Data sizes:     COMRAM   BANK0   BANK1   BANK2   BANK3   BANK4   BANK5   BANK6   BANK7   BANK8   BANK9  BANK10  BANK1
      +1  BANK12  BANK13  BANK14  BANK15
  5235 ;;      Params:         1       0       0       0       0       0       0       0       0       0       0       0       
      +0       0       0       0       0
  5236 ;;      Locals:         0       2       0       0       0       0       0       0       0       0       0       0       
      +0       0       0       0       0
  5237 ;;      Temps:          0       0       0       0       0       0       0       0       0       0       0       0       
      +0       0       0       0       0
  5238 ;;      Totals:         1       2       0       0       0       0       0       0       0       0       0       0       
      +0       0       0       0       0
  5239 ;;Total ram usage:        3 bytes
  5240 ;; Hardware stack levels used: 1
  5241 ;; Hardware stack levels required when called: 10
  5242 ;; This function calls:
  5243 ;;		_memset
  5244 ;;		_sprintf
  5245 ;; This function is called by:
  5246 ;;		_main
  5247 ;; This function uses a non-reentrant model
  5248 ;;
  5249                           
  5250                           	psect	text26
  5251   002E0C                     __ptext26:
  5252                           	callstack 0
  5253   002E0C                     _convert_byte_to_string:
  5254                           	callstack 20
  5255                           
  5256                           ;incstack = 0
  5257                           ;convert_byte_to_string@value stored from wreg
  5258   002E0C  0100               	movlb	0	; () banked
  5259   002E0E  6FFD               	movwf	convert_byte_to_string@value& (0+255),b
  5260   002E10                     
  5261                           ;ECU_Layer/Chr_LCD/ecu_chr_lcd.c: 302: std_ReturneType convert_byte_to_string(uint8 valu
      +                          e , uint8 *str);ECU_Layer/Chr_LCD/ecu_chr_lcd.c: 303: {;ECU_Layer/Chr_LCD/ecu_chr_lcd.c:
      +                           304:     std_ReturneType ret = (std_ReturneType)0x01 ;
  5262   002E10  0E01               	movlw	1
  5263   002E12  0100               	movlb	0	; () banked
  5264   002E14  6FFE               	movwf	convert_byte_to_string@ret& (0+255),b
  5265   002E16                     
  5266                           ; BSR set to: 0
  5267                           ;ECU_Layer/Chr_LCD/ecu_chr_lcd.c: 305:     if(((void*)0) == str)
  5268   002E16  5030               	movf	convert_byte_to_string@str^0,w,c
  5269   002E18  A4D8               	btfss	status,2,c
  5270   002E1A  EF11  F017         	goto	u5861
  5271   002E1E  EF13  F017         	goto	u5860
  5272   002E22                     u5861:
  5273   002E22  EF17  F017         	goto	l6543
  5274   002E26                     u5860:
  5275   002E26                     
  5276                           ; BSR set to: 0
  5277                           ;ECU_Layer/Chr_LCD/ecu_chr_lcd.c: 306:         ret = (std_ReturneType)0x00 ;
  5278   002E26  0E00               	movlw	0
  5279   002E28  6FFE               	movwf	convert_byte_to_string@ret& (0+255),b
  5280   002E2A  EF2D  F017         	goto	l6547
  5281   002E2E                     l6543:
  5282                           
  5283                           ; BSR set to: 0
  5284                           ;ECU_Layer/Chr_LCD/ecu_chr_lcd.c: 308:     {;ECU_Layer/Chr_LCD/ecu_chr_lcd.c: 309:      
      +                             memset(str , '\0' , 4);
  5285   002E2E  C030  F012         	movff	convert_byte_to_string@str,memset@dest
  5286   002E32  0E00               	movlw	0
  5287   002E34  6E14               	movwf	(memset@c+1)^0,c
  5288   002E36  0E00               	movlw	0
  5289   002E38  6E13               	movwf	memset@c^0,c
  5290   002E3A  0E00               	movlw	0
  5291   002E3C  6E16               	movwf	(memset@n+1)^0,c
  5292   002E3E  0E04               	movlw	4
  5293   002E40  6E15               	movwf	memset@n^0,c
  5294   002E42  EC65  F018         	call	_memset	;wreg free
  5295   002E46                     
  5296                           ;ECU_Layer/Chr_LCD/ecu_chr_lcd.c: 310:         sprintf((char *)str , "%i" , value);
  5297   002E46  C030  F120         	movff	convert_byte_to_string@str,sprintf@s
  5298   002E4A  0EBA               	movlw	low STR_1
  5299   002E4C  0101               	movlb	1	; () banked
  5300   002E4E  6F21               	movwf	sprintf@fmt& (0+255),b
  5301   002E50  C0FD  F122         	movff	convert_byte_to_string@value,?_sprintf+2
  5302   002E54  6B23               	clrf	(?_sprintf+3)& (0+255),b
  5303   002E56  EC7C  F017         	call	_sprintf	;wreg free
  5304   002E5A                     l6547:
  5305                           
  5306                           ;ECU_Layer/Chr_LCD/ecu_chr_lcd.c: 312:     return ret ;
  5307   002E5A  0100               	movlb	0	; () banked
  5308   002E5C  51FE               	movf	convert_byte_to_string@ret& (0+255),w,b
  5309   002E5E                     
  5310                           ; BSR set to: 0
  5311   002E5E  0012               	return		;funcret
  5312   002E60                     __end_of_convert_byte_to_string:
  5313                           	callstack 0
  5314                           
  5315 ;; *************** function _sprintf *****************
  5316 ;; Defined at:
  5317 ;;		line 9 in file "C:\Program Files\Microchip\xc8\v2.45\pic\sources\c99\common\nf_sprintf.c"
  5318 ;; Parameters:    Size  Location     Type
  5319 ;;  s               1    0[BANK1 ] PTR unsigned char 
  5320 ;;		 -> result_txt(6), YourPass(6), 
  5321 ;;  fmt             1    1[BANK1 ] PTR const unsigned char 
  5322 ;;		 -> STR_3(3), STR_2(3), STR_1(3), 
  5323 ;; Auto vars:     Size  Location     Type
  5324 ;;  f              12    6[BANK1 ] struct _IO_FILE
  5325 ;;  ap              2    4[BANK1 ] PTR void [1]
  5326 ;;		 -> ?_sprintf(2), 
  5327 ;;  ret             2    0        int 
  5328 ;; Return value:  Size  Location     Type
  5329 ;;                  2    0[BANK1 ] int 
  5330 ;; Registers used:
  5331 ;;		wreg, fsr1l, fsr1h, fsr2l, fsr2h, status,2, status,0, tblptrl, tblptrh, tblptru, cstack
  5332 ;; Tracked objects:
  5333 ;;		On entry : 0/0
  5334 ;;		On exit  : 0/0
  5335 ;;		Unchanged: 0/0
  5336 ;; Data sizes:     COMRAM   BANK0   BANK1   BANK2   BANK3   BANK4   BANK5   BANK6   BANK7   BANK8   BANK9  BANK10  BANK1
      +1  BANK12  BANK13  BANK14  BANK15
  5337 ;;      Params:         0       0       4       0       0       0       0       0       0       0       0       0       
      +0       0       0       0       0
  5338 ;;      Locals:         0       0      14       0       0       0       0       0       0       0       0       0       
      +0       0       0       0       0
  5339 ;;      Temps:          0       0       0       0       0       0       0       0       0       0       0       0       
      +0       0       0       0       0
  5340 ;;      Totals:         0       0      18       0       0       0       0       0       0       0       0       0       
      +0       0       0       0       0
  5341 ;;Total ram usage:       18 bytes
  5342 ;; Hardware stack levels used: 1
  5343 ;; Hardware stack levels required when called: 9
  5344 ;; This function calls:
  5345 ;;		_vfprintf
  5346 ;; This function is called by:
  5347 ;;		_convert_byte_to_string
  5348 ;;		_convert_short_to_string
  5349 ;;		_convert_int_to_string
  5350 ;; This function uses a non-reentrant model
  5351 ;;
  5352                           
  5353                           	psect	text27
  5354   002EF8                     __ptext27:
  5355                           	callstack 0
  5356   002EF8                     _sprintf:
  5357                           	callstack 20
  5358   002EF8  0E22               	movlw	low (?_sprintf+2)
  5359   002EFA  0101               	movlb	1	; () banked
  5360   002EFC  6F24               	movwf	sprintf@ap& (0+255),b
  5361   002EFE  0E01               	movlw	high (?_sprintf+2)
  5362   002F00  6F25               	movwf	(sprintf@ap+1)& (0+255),b
  5363   002F02  C120  F126         	movff	sprintf@s,sprintf@f
  5364   002F06                     
  5365                           ; BSR set to: 1
  5366   002F06  0E00               	movlw	0
  5367   002F08  6F2A               	movwf	(sprintf@f+4)& (0+255),b
  5368   002F0A  0E00               	movlw	0
  5369   002F0C  6F29               	movwf	(sprintf@f+3)& (0+255),b
  5370   002F0E                     
  5371                           ; BSR set to: 1
  5372   002F0E  0E00               	movlw	0
  5373   002F10  6F31               	movwf	(sprintf@f+11)& (0+255),b
  5374   002F12  0E00               	movlw	0
  5375   002F14  6F30               	movwf	(sprintf@f+10)& (0+255),b
  5376   002F16                     
  5377                           ; BSR set to: 1
  5378   002F16  0E26               	movlw	low sprintf@f
  5379   002F18  6E2A               	movwf	vfprintf@fp^0,c
  5380   002F1A  0E01               	movlw	high sprintf@f
  5381   002F1C  6E2B               	movwf	(vfprintf@fp+1)^0,c
  5382   002F1E  C121  F02C         	movff	sprintf@fmt,vfprintf@fmt
  5383   002F22  0E24               	movlw	low sprintf@ap
  5384   002F24  6E2D               	movwf	vfprintf@ap^0,c
  5385   002F26  0E01               	movlw	high sprintf@ap
  5386   002F28  6E2E               	movwf	(vfprintf@ap+1)^0,c
  5387   002F2A  EC58  F017         	call	_vfprintf	;wreg free
  5388   002F2E  0101               	movlb	1	; () banked
  5389   002F30  5120               	movf	sprintf@s& (0+255),w,b
  5390   002F32  2529               	addwf	(sprintf@f+3)& (0+255),w,b
  5391   002F34  6ED9               	movwf	fsr2l,c
  5392   002F36  6ADA               	clrf	fsr2h,c
  5393   002F38  6ADF               	clrf	indf2,c
  5394   002F3A                     
  5395                           ; BSR set to: 1
  5396   002F3A  0012               	return		;funcret
  5397   002F3C                     __end_of_sprintf:
  5398                           	callstack 0
  5399                           
  5400 ;; *************** function _vfprintf *****************
  5401 ;; Defined at:
  5402 ;;		line 1817 in file "C:\Program Files\Microchip\xc8\v2.45\pic\sources\c99\common\doprnt.c"
  5403 ;; Parameters:    Size  Location     Type
  5404 ;;  fp              2   41[COMRAM] PTR struct _IO_FILE
  5405 ;;		 -> sprintf@f(12), 
  5406 ;;  fmt             1   43[COMRAM] PTR const unsigned char 
  5407 ;;		 -> STR_3(3), STR_2(3), STR_1(3), 
  5408 ;;  ap              2   44[COMRAM] PTR PTR void 
  5409 ;;		 -> sprintf@ap(2), 
  5410 ;; Auto vars:     Size  Location     Type
  5411 ;;  cfmt            1   46[COMRAM] PTR unsigned char 
  5412 ;;		 -> STR_3(3), STR_2(3), STR_1(3), 
  5413 ;; Return value:  Size  Location     Type
  5414 ;;                  2   41[COMRAM] int 
  5415 ;; Registers used:
  5416 ;;		wreg, fsr1l, fsr1h, fsr2l, fsr2h, status,2, status,0, tblptrl, tblptrh, tblptru, cstack
  5417 ;; Tracked objects:
  5418 ;;		On entry : 0/0
  5419 ;;		On exit  : 0/0
  5420 ;;		Unchanged: 0/0
  5421 ;; Data sizes:     COMRAM   BANK0   BANK1   BANK2   BANK3   BANK4   BANK5   BANK6   BANK7   BANK8   BANK9  BANK10  BANK1
      +1  BANK12  BANK13  BANK14  BANK15
  5422 ;;      Params:         5       0       0       0       0       0       0       0       0       0       0       0       
      +0       0       0       0       0
  5423 ;;      Locals:         1       0       0       0       0       0       0       0       0       0       0       0       
      +0       0       0       0       0
  5424 ;;      Temps:          0       0       0       0       0       0       0       0       0       0       0       0       
      +0       0       0       0       0
  5425 ;;      Totals:         6       0       0       0       0       0       0       0       0       0       0       0       
      +0       0       0       0       0
  5426 ;;Total ram usage:        6 bytes
  5427 ;; Hardware stack levels used: 1
  5428 ;; Hardware stack levels required when called: 8
  5429 ;; This function calls:
  5430 ;;		_vfpfcnvrt
  5431 ;; This function is called by:
  5432 ;;		_sprintf
  5433 ;; This function uses a non-reentrant model
  5434 ;;
  5435                           
  5436                           	psect	text28
  5437   002EB0                     __ptext28:
  5438                           	callstack 0
  5439   002EB0                     _vfprintf:
  5440                           	callstack 20
  5441   002EB0                     
  5442                           ;C:\Program Files\Microchip\xc8\v2.45\pic\sources\c99\common\doprnt.c: 1817: int vfprint
      +                          f(FILE *fp, const char *fmt, va_list ap);C:\Program Files\Microchip\xc8\v2.45\pic\source
      +                          s\c99\common\doprnt.c: 1818: {;C:\Program Files\Microchip\xc8\v2.45\pic\sources\c99\comm
      +                          on\doprnt.c: 1820:     char *cfmt;;C:\Program Files\Microchip\xc8\v2.45\pic\sources\c99\
      +                          common\doprnt.c: 1822:     cfmt = (char *)fmt;
  5443   002EB0  C02C  F02F         	movff	vfprintf@fmt,vfprintf@cfmt
  5444                           
  5445                           ;C:\Program Files\Microchip\xc8\v2.45\pic\sources\c99\common\doprnt.c: 1826:     while (
      +                          *cfmt) {
  5446   002EB4  EF68  F017         	goto	l6519
  5447   002EB8                     l6517:
  5448                           
  5449                           ;C:\Program Files\Microchip\xc8\v2.45\pic\sources\c99\common\doprnt.c: 1830:    vfpfcnvr
      +                          t(fp, &cfmt, ap);
  5450   002EB8  C02A  F01C         	movff	vfprintf@fp,vfpfcnvrt@fp
  5451   002EBC  C02B  F01D         	movff	vfprintf@fp+1,vfpfcnvrt@fp+1
  5452   002EC0  0E2F               	movlw	low vfprintf@cfmt
  5453   002EC2  6E1E               	movwf	vfpfcnvrt@fmt^0,c
  5454   002EC4  C02D  F01F         	movff	vfprintf@ap,vfpfcnvrt@ap
  5455   002EC8  C02E  F020         	movff	vfprintf@ap+1,vfpfcnvrt@ap+1
  5456   002ECC  EC05  F00D         	call	_vfpfcnvrt	;wreg free
  5457   002ED0                     l6519:
  5458                           
  5459                           ;C:\Program Files\Microchip\xc8\v2.45\pic\sources\c99\common\doprnt.c: 1826:     while (
      +                          *cfmt) {
  5460   002ED0  C02F  FFF6         	movff	vfprintf@cfmt,tblptrl
  5461   002ED4                     	if	1	;There is more than 1 active tblptr byte
  5462   002ED4  0E10               	movlw	high __smallconst
  5463   002ED6  6EF7               	movwf	tblptrh,c
  5464   002ED8                     	endif
  5465   002ED8                     	if	1	;Program memory is < 0x10000, tblptru is always zero
  5466   002ED8  6AF8               	clrf	tblptru,c
  5467   002EDA                     	endif
  5468   002EDA                     	if	0	;tblptru may be non-zero
  5469   002EDA                     	endif
  5470   002EDA  0008               	tblrd		*
  5471   002EDC  50F5               	movf	tablat,w,c
  5472   002EDE  0900               	iorlw	0
  5473   002EE0  A4D8               	btfss	status,2,c
  5474   002EE2  EF75  F017         	goto	u5851
  5475   002EE6  EF77  F017         	goto	u5850
  5476   002EEA                     u5851:
  5477   002EEA  EF5C  F017         	goto	l6517
  5478   002EEE                     u5850:
  5479   002EEE                     
  5480                           ;C:\Program Files\Microchip\xc8\v2.45\pic\sources\c99\common\doprnt.c: 1835:  return 0;
  5481   002EEE  0E00               	movlw	0
  5482   002EF0  6E2B               	movwf	(?_vfprintf+1)^0,c
  5483   002EF2  0E00               	movlw	0
  5484   002EF4  6E2A               	movwf	?_vfprintf^0,c
  5485   002EF6  0012               	return		;funcret
  5486   002EF8                     __end_of_vfprintf:
  5487                           	callstack 0
  5488                           
  5489 ;; *************** function _vfpfcnvrt *****************
  5490 ;; Defined at:
  5491 ;;		line 1177 in file "C:\Program Files\Microchip\xc8\v2.45\pic\sources\c99\common\doprnt.c"
  5492 ;; Parameters:    Size  Location     Type
  5493 ;;  fp              2   27[COMRAM] PTR struct _IO_FILE
  5494 ;;		 -> sprintf@f(12), 
  5495 ;;  fmt             1   29[COMRAM] PTR PTR unsigned char 
  5496 ;;		 -> vfprintf@cfmt(1), 
  5497 ;;  ap              2   30[COMRAM] PTR PTR void 
  5498 ;;		 -> sprintf@ap(2), 
  5499 ;; Auto vars:     Size  Location     Type
  5500 ;;  convarg         4   36[COMRAM] struct .
  5501 ;;  c               1   40[COMRAM] unsigned char 
  5502 ;;  cp              1   35[COMRAM] PTR unsigned char 
  5503 ;;		 -> STR_3(3), STR_2(3), STR_1(3), 
  5504 ;;  done            1   34[COMRAM] _Bool 
  5505 ;; Return value:  Size  Location     Type
  5506 ;;                  1    wreg      void 
  5507 ;; Registers used:
  5508 ;;		wreg, fsr1l, fsr1h, fsr2l, fsr2h, status,2, status,0, tblptrl, tblptrh, tblptru, cstack
  5509 ;; Tracked objects:
  5510 ;;		On entry : 0/0
  5511 ;;		On exit  : 0/0
  5512 ;;		Unchanged: 0/0
  5513 ;; Data sizes:     COMRAM   BANK0   BANK1   BANK2   BANK3   BANK4   BANK5   BANK6   BANK7   BANK8   BANK9  BANK10  BANK1
      +1  BANK12  BANK13  BANK14  BANK15
  5514 ;;      Params:         5       0       0       0       0       0       0       0       0       0       0       0       
      +0       0       0       0       0
  5515 ;;      Locals:         7       0       0       0       0       0       0       0       0       0       0       0       
      +0       0       0       0       0
  5516 ;;      Temps:          2       0       0       0       0       0       0       0       0       0       0       0       
      +0       0       0       0       0
  5517 ;;      Totals:        14       0       0       0       0       0       0       0       0       0       0       0       
      +0       0       0       0       0
  5518 ;;Total ram usage:       14 bytes
  5519 ;; Hardware stack levels used: 1
  5520 ;; Hardware stack levels required when called: 7
  5521 ;; This function calls:
  5522 ;;		___awdiv
  5523 ;;		___awmod
  5524 ;;		_abs
  5525 ;;		_fputc
  5526 ;; This function is called by:
  5527 ;;		_vfprintf
  5528 ;; This function uses a non-reentrant model
  5529 ;;
  5530                           
  5531                           	psect	text29
  5532   001A0A                     __ptext29:
  5533                           	callstack 0
  5534   001A0A                     _vfpfcnvrt:
  5535                           	callstack 20
  5536   001A0A                     
  5537                           ;C:\Program Files\Microchip\xc8\v2.45\pic\sources\c99\common\doprnt.c: 1177: vfpfcnvrt(F
      +                          ILE *fp, char *fmt[], va_list ap);C:\Program Files\Microchip\xc8\v2.45\pic\sources\c99\c
      +                          ommon\doprnt.c: 1178: {;C:\Program Files\Microchip\xc8\v2.45\pic\sources\c99\common\dopr
      +                          nt.c: 1179:     char c, *cp;;C:\Program Files\Microchip\xc8\v2.45\pic\sources\c99\common
      +                          \doprnt.c: 1180:     _Bool done;;C:\Program Files\Microchip\xc8\v2.45\pic\sources\c99\co
      +                          mmon\doprnt.c: 1188:  } convarg;;C:\Program Files\Microchip\xc8\v2.45\pic\sources\c99\co
      +                          mmon\doprnt.c: 1201:     if ((*fmt)[0] == '%') {
  5538   001A0A  501E               	movf	vfpfcnvrt@fmt^0,w,c
  5539   001A0C  6ED9               	movwf	fsr2l,c
  5540   001A0E  6ADA               	clrf	fsr2h,c
  5541   001A10  CFDF FFF6          	movff	indf2,tblptrl
  5542   001A14                     	if	1	;There is more than 1 active tblptr byte
  5543   001A14  0E10               	movlw	high __smallconst
  5544   001A16  6EF7               	movwf	tblptrh,c
  5545   001A18                     	endif
  5546   001A18                     	if	1	;Program memory is < 0x10000, tblptru is always zero
  5547   001A18  6AF8               	clrf	tblptru,c
  5548   001A1A                     	endif
  5549   001A1A                     	if	0	;tblptru may be non-zero
  5550   001A1A                     	endif
  5551   001A1A  0008               	tblrd		*
  5552   001A1C  50F5               	movf	tablat,w,c
  5553   001A1E  0A25               	xorlw	37
  5554   001A20  A4D8               	btfss	status,2,c
  5555   001A22  EF15  F00D         	goto	u5751
  5556   001A26  EF17  F00D         	goto	u5750
  5557   001A2A                     u5751:
  5558   001A2A  EFE2  F00D         	goto	l6509
  5559   001A2E                     u5750:
  5560   001A2E                     
  5561                           ;C:\Program Files\Microchip\xc8\v2.45\pic\sources\c99\common\doprnt.c: 1202:         ++*
      +                          fmt;
  5562   001A2E  501E               	movf	vfpfcnvrt@fmt^0,w,c
  5563   001A30  6ED9               	movwf	fsr2l,c
  5564   001A32  6ADA               	clrf	fsr2h,c
  5565   001A34  2ADF               	incf	indf2,f,c
  5566   001A36                     
  5567                           ;C:\Program Files\Microchip\xc8\v2.45\pic\sources\c99\common\doprnt.c: 1204:         fla
      +                          gs = width = 0;
  5568   001A36  0E00               	movlw	0
  5569   001A38  6E32               	movwf	(_width+1)^0,c
  5570   001A3A  0E00               	movlw	0
  5571   001A3C  6E31               	movwf	_width^0,c
  5572   001A3E  C031  F04F         	movff	_width,_flags
  5573   001A42                     
  5574                           ;C:\Program Files\Microchip\xc8\v2.45\pic\sources\c99\common\doprnt.c: 1205:         pre
      +                          c = -1;
  5575   001A42  6833               	setf	_prec^0,c
  5576   001A44  6834               	setf	(_prec+1)^0,c
  5577   001A46                     
  5578                           ;C:\Program Files\Microchip\xc8\v2.45\pic\sources\c99\common\doprnt.c: 1291:   cp = *fmt
      +                          ;
  5579   001A46  501E               	movf	vfpfcnvrt@fmt^0,w,c
  5580   001A48  6ED9               	movwf	fsr2l,c
  5581   001A4A  6ADA               	clrf	fsr2h,c
  5582   001A4C  50DF               	movf	indf2,w,c
  5583   001A4E  6E24               	movwf	vfpfcnvrt@cp^0,c
  5584   001A50                     
  5585                           ;C:\Program Files\Microchip\xc8\v2.45\pic\sources\c99\common\doprnt.c: 1361:   if (*cp =
      +                          = 'd' || *cp == 'i') {
  5586   001A50  C024  FFF6         	movff	vfpfcnvrt@cp,tblptrl
  5587   001A54                     	if	1	;There is more than 1 active tblptr byte
  5588   001A54  0E10               	movlw	high __smallconst
  5589   001A56  6EF7               	movwf	tblptrh,c
  5590   001A58                     	endif
  5591   001A58                     	if	1	;Program memory is < 0x10000, tblptru is always zero
  5592   001A58  6AF8               	clrf	tblptru,c
  5593   001A5A                     	endif
  5594   001A5A                     	if	0	;tblptru may be non-zero
  5595   001A5A                     	endif
  5596   001A5A  0008               	tblrd		*
  5597   001A5C  50F5               	movf	tablat,w,c
  5598   001A5E  0A64               	xorlw	100
  5599   001A60  B4D8               	btfsc	status,2,c
  5600   001A62  EF35  F00D         	goto	u5761
  5601   001A66  EF37  F00D         	goto	u5760
  5602   001A6A                     u5761:
  5603   001A6A  EF46  F00D         	goto	l6479
  5604   001A6E                     u5760:
  5605   001A6E  C024  FFF6         	movff	vfpfcnvrt@cp,tblptrl
  5606   001A72                     	if	1	;There is more than 1 active tblptr byte
  5607   001A72  0E10               	movlw	high __smallconst
  5608   001A74  6EF7               	movwf	tblptrh,c
  5609   001A76                     	endif
  5610   001A76                     	if	1	;Program memory is < 0x10000, tblptru is always zero
  5611   001A76  6AF8               	clrf	tblptru,c
  5612   001A78                     	endif
  5613   001A78                     	if	0	;tblptru may be non-zero
  5614   001A78                     	endif
  5615   001A78  0008               	tblrd		*
  5616   001A7A  50F5               	movf	tablat,w,c
  5617   001A7C  0A69               	xorlw	105
  5618   001A7E  A4D8               	btfss	status,2,c
  5619   001A80  EF44  F00D         	goto	u5771
  5620   001A84  EF46  F00D         	goto	u5770
  5621   001A88                     u5771:
  5622   001A88  EFDC  F00D         	goto	l6505
  5623   001A8C                     u5770:
  5624   001A8C                     l6479:
  5625                           
  5626                           ;C:\Program Files\Microchip\xc8\v2.45\pic\sources\c99\common\doprnt.c: 1404:    convarg.
      +                          sint = (vfpf_sint_t)(int)(*(int *)__va_arg(*(int **)ap, (int)0));
  5627   001A8C  C01F  FFD9         	movff	vfpfcnvrt@ap,fsr2l
  5628   001A90  C020  FFDA         	movff	vfpfcnvrt@ap+1,fsr2h
  5629   001A94  CFDF F021          	movff	indf2,??_vfpfcnvrt
  5630   001A98  0E02               	movlw	2
  5631   001A9A  26DE               	addwf	postinc2,f,c
  5632   001A9C  CFDF F022          	movff	indf2,??_vfpfcnvrt+1
  5633   001AA0  0E00               	movlw	0
  5634   001AA2  22DD               	addwfc	postdec2,f,c
  5635   001AA4  C021  FFD9         	movff	??_vfpfcnvrt,fsr2l
  5636   001AA8  C022  FFDA         	movff	??_vfpfcnvrt+1,fsr2h
  5637   001AAC  CFDE F025          	movff	postinc2,vfpfcnvrt@convarg
  5638   001AB0  CFDD F026          	movff	postdec2,vfpfcnvrt@convarg+1
  5639                           
  5640                           ;C:\Program Files\Microchip\xc8\v2.45\pic\sources\c99\common\doprnt.c: 1406:    *fmt = c
      +                          p+1;
  5641   001AB4  501E               	movf	vfpfcnvrt@fmt^0,w,c
  5642   001AB6  6ED9               	movwf	fsr2l,c
  5643   001AB8  6ADA               	clrf	fsr2h,c
  5644   001ABA  2824               	incf	vfpfcnvrt@cp^0,w,c
  5645   001ABC  6EDF               	movwf	indf2,c
  5646   001ABE                     
  5647                           ;C:\Program Files\Microchip\xc8\v2.45\pic\sources\c99\common\doprnt.c: 1408:    c = size
      +                          of(dbuf);
  5648   001ABE  0E20               	movlw	32
  5649   001AC0  6E29               	movwf	vfpfcnvrt@c^0,c
  5650   001AC2                     
  5651                           ;C:\Program Files\Microchip\xc8\v2.45\pic\sources\c99\common\doprnt.c: 1409:    done = c
      +                          onvarg.sint < 0;
  5652   001AC2  BE26               	btfsc	(vfpfcnvrt@convarg+1)^0,7,c
  5653   001AC4  EF66  F00D         	goto	u5781
  5654   001AC8  EF69  F00D         	goto	u5780
  5655   001ACC                     u5781:
  5656   001ACC  0E01               	movlw	1
  5657   001ACE  EF6A  F00D         	goto	u5790
  5658   001AD2                     u5780:
  5659   001AD2  0E00               	movlw	0
  5660   001AD4                     u5790:
  5661   001AD4  6E23               	movwf	vfpfcnvrt@done^0,c
  5662   001AD6                     l6485:
  5663                           
  5664                           ;C:\Program Files\Microchip\xc8\v2.45\pic\sources\c99\common\doprnt.c: 1411:     dbuf[--
      +                          c] = abs(convarg.sint % 10) + '0';
  5665   001AD6  0629               	decf	vfpfcnvrt@c^0,f,c
  5666   001AD8  0E00               	movlw	low _dbuf
  5667   001ADA  2429               	addwf	vfpfcnvrt@c^0,w,c
  5668   001ADC  6ED9               	movwf	fsr2l,c
  5669   001ADE  6ADA               	clrf	fsr2h,c
  5670   001AE0  0E01               	movlw	high _dbuf
  5671   001AE2  22DA               	addwfc	fsr2h,f,c
  5672   001AE4  C025  F012         	movff	vfpfcnvrt@convarg,___awmod@dividend
  5673   001AE8  C026  F013         	movff	vfpfcnvrt@convarg+1,___awmod@dividend+1
  5674   001AEC  0E00               	movlw	0
  5675   001AEE  6E15               	movwf	(___awmod@divisor+1)^0,c
  5676   001AF0  0E0A               	movlw	10
  5677   001AF2  6E14               	movwf	___awmod@divisor^0,c
  5678   001AF4  EC95  F011         	call	___awmod	;wreg free
  5679   001AF8  C012  F018         	movff	?___awmod,abs@a
  5680   001AFC  C013  F019         	movff	?___awmod+1,abs@a+1
  5681   001B00  EC4B  F018         	call	_abs	;wreg free
  5682   001B04  5018               	movf	?_abs^0,w,c
  5683   001B06  0F30               	addlw	48
  5684   001B08  6EDF               	movwf	indf2,c
  5685   001B0A                     
  5686                           ;C:\Program Files\Microchip\xc8\v2.45\pic\sources\c99\common\doprnt.c: 1412:     convarg
      +                          .sint /= 10;
  5687   001B0A  C025  F012         	movff	vfpfcnvrt@convarg,___awdiv@dividend
  5688   001B0E  C026  F013         	movff	vfpfcnvrt@convarg+1,___awdiv@dividend+1
  5689   001B12  0E00               	movlw	0
  5690   001B14  6E15               	movwf	(___awdiv@divisor+1)^0,c
  5691   001B16  0E0A               	movlw	10
  5692   001B18  6E14               	movwf	___awdiv@divisor^0,c
  5693   001B1A  EC7E  F010         	call	___awdiv	;wreg free
  5694   001B1E  C012  F025         	movff	?___awdiv,vfpfcnvrt@convarg
  5695   001B22  C013  F026         	movff	?___awdiv+1,vfpfcnvrt@convarg+1
  5696   001B26                     
  5697                           ;C:\Program Files\Microchip\xc8\v2.45\pic\sources\c99\common\doprnt.c: 1416:    } while 
      +                          (convarg.sint != 0 && c != 0);
  5698   001B26  5025               	movf	vfpfcnvrt@convarg^0,w,c
  5699   001B28  1026               	iorwf	(vfpfcnvrt@convarg+1)^0,w,c
  5700   001B2A  B4D8               	btfsc	status,2,c
  5701   001B2C  EF9A  F00D         	goto	u5801
  5702   001B30  EF9C  F00D         	goto	u5800
  5703   001B34                     u5801:
  5704   001B34  EFA4  F00D         	goto	l6493
  5705   001B38                     u5800:
  5706   001B38  5029               	movf	vfpfcnvrt@c^0,w,c
  5707   001B3A  A4D8               	btfss	status,2,c
  5708   001B3C  EFA2  F00D         	goto	u5811
  5709   001B40  EFA4  F00D         	goto	u5810
  5710   001B44                     u5811:
  5711   001B44  EF6B  F00D         	goto	l6485
  5712   001B48                     u5810:
  5713   001B48                     l6493:
  5714                           
  5715                           ;C:\Program Files\Microchip\xc8\v2.45\pic\sources\c99\common\doprnt.c: 1417:    if (c !=
      +                           0 && done) {
  5716   001B48  5029               	movf	vfpfcnvrt@c^0,w,c
  5717   001B4A  B4D8               	btfsc	status,2,c
  5718   001B4C  EFAA  F00D         	goto	u5821
  5719   001B50  EFAC  F00D         	goto	u5820
  5720   001B54                     u5821:
  5721   001B54  EFD1  F00D         	goto	l6503
  5722   001B58                     u5820:
  5723   001B58  5023               	movf	vfpfcnvrt@done^0,w,c
  5724   001B5A  B4D8               	btfsc	status,2,c
  5725   001B5C  EFB2  F00D         	goto	u5831
  5726   001B60  EFB4  F00D         	goto	u5830
  5727   001B64                     u5831:
  5728   001B64  EFD1  F00D         	goto	l6503
  5729   001B68                     u5830:
  5730   001B68                     
  5731                           ;C:\Program Files\Microchip\xc8\v2.45\pic\sources\c99\common\doprnt.c: 1418:     dbuf[--
      +                          c] = '-';
  5732   001B68  0629               	decf	vfpfcnvrt@c^0,f,c
  5733   001B6A  0E00               	movlw	low _dbuf
  5734   001B6C  2429               	addwf	vfpfcnvrt@c^0,w,c
  5735   001B6E  6ED9               	movwf	fsr2l,c
  5736   001B70  6ADA               	clrf	fsr2h,c
  5737   001B72  0E01               	movlw	high _dbuf
  5738   001B74  22DA               	addwfc	fsr2h,f,c
  5739   001B76  0E2D               	movlw	45
  5740   001B78  6EDF               	movwf	indf2,c
  5741   001B7A  EFD1  F00D         	goto	l6503
  5742   001B7E                     l6499:
  5743                           
  5744                           ;C:\Program Files\Microchip\xc8\v2.45\pic\sources\c99\common\doprnt.c: 1424:     fputc(d
      +                          buf[c++], fp);
  5745   001B7E  0E00               	movlw	low _dbuf
  5746   001B80  2429               	addwf	vfpfcnvrt@c^0,w,c
  5747   001B82  6ED9               	movwf	fsr2l,c
  5748   001B84  6ADA               	clrf	fsr2h,c
  5749   001B86  0E01               	movlw	high _dbuf
  5750   001B88  22DA               	addwfc	fsr2h,f,c
  5751   001B8A  50DF               	movf	indf2,w,c
  5752   001B8C  6E21               	movwf	??_vfpfcnvrt^0,c
  5753   001B8E  5021               	movf	??_vfpfcnvrt^0,w,c
  5754   001B90  6E12               	movwf	fputc@c^0,c
  5755   001B92  6A13               	clrf	(fputc@c+1)^0,c
  5756   001B94  C01C  F014         	movff	vfpfcnvrt@fp,fputc@fp
  5757   001B98  C01D  F015         	movff	vfpfcnvrt@fp+1,fputc@fp+1
  5758   001B9C  ECE0  F010         	call	_fputc	;wreg free
  5759   001BA0  2A29               	incf	vfpfcnvrt@c^0,f,c
  5760   001BA2                     l6503:
  5761                           
  5762                           ;C:\Program Files\Microchip\xc8\v2.45\pic\sources\c99\common\doprnt.c: 1423:    while (c
      +                           != sizeof(dbuf)) {
  5763   001BA2  0E20               	movlw	32
  5764   001BA4  1829               	xorwf	vfpfcnvrt@c^0,w,c
  5765   001BA6  A4D8               	btfss	status,2,c
  5766   001BA8  EFD8  F00D         	goto	u5841
  5767   001BAC  EFDA  F00D         	goto	u5840
  5768   001BB0                     u5841:
  5769   001BB0  EFBF  F00D         	goto	l6499
  5770   001BB4                     u5840:
  5771   001BB4  EFF6  F00D         	goto	l1873
  5772   001BB8                     l6505:
  5773                           
  5774                           ;C:\Program Files\Microchip\xc8\v2.45\pic\sources\c99\common\doprnt.c: 1806:         ++*
      +                          fmt;
  5775   001BB8  501E               	movf	vfpfcnvrt@fmt^0,w,c
  5776   001BBA  6ED9               	movwf	fsr2l,c
  5777   001BBC  6ADA               	clrf	fsr2h,c
  5778   001BBE  2ADF               	incf	indf2,f,c
  5779   001BC0  EFF6  F00D         	goto	l1873
  5780   001BC4                     l6509:
  5781                           
  5782                           ;C:\Program Files\Microchip\xc8\v2.45\pic\sources\c99\common\doprnt.c: 1811:     fputc((
      +                          int)(*fmt)[0], fp);
  5783   001BC4  501E               	movf	vfpfcnvrt@fmt^0,w,c
  5784   001BC6  6ED9               	movwf	fsr2l,c
  5785   001BC8  6ADA               	clrf	fsr2h,c
  5786   001BCA  CFDF FFF6          	movff	indf2,tblptrl
  5787   001BCE                     	if	1	;There is more than 1 active tblptr byte
  5788   001BCE  0E10               	movlw	high __smallconst
  5789   001BD0  6EF7               	movwf	tblptrh,c
  5790   001BD2                     	endif
  5791   001BD2                     	if	1	;Program memory is < 0x10000, tblptru is always zero
  5792   001BD2  6AF8               	clrf	tblptru,c
  5793   001BD4                     	endif
  5794   001BD4                     	if	0	;tblptru may be non-zero
  5795   001BD4                     	endif
  5796   001BD4  0008               	tblrd		*
  5797   001BD6  50F5               	movf	tablat,w,c
  5798   001BD8  6E12               	movwf	fputc@c^0,c
  5799   001BDA  6A13               	clrf	(fputc@c+1)^0,c
  5800   001BDC  C01C  F014         	movff	vfpfcnvrt@fp,fputc@fp
  5801   001BE0  C01D  F015         	movff	vfpfcnvrt@fp+1,fputc@fp+1
  5802   001BE4  ECE0  F010         	call	_fputc	;wreg free
  5803   001BE8  EFDC  F00D         	goto	l6505
  5804   001BEC                     l1873:
  5805   001BEC  0012               	return		;funcret
  5806   001BEE                     __end_of_vfpfcnvrt:
  5807                           	callstack 0
  5808                           
  5809 ;; *************** function _fputc *****************
  5810 ;; Defined at:
  5811 ;;		line 8 in file "C:\Program Files\Microchip\xc8\v2.45\pic\sources\c99\common\nf_fputc.c"
  5812 ;; Parameters:    Size  Location     Type
  5813 ;;  c               2   17[COMRAM] int 
  5814 ;;  fp              2   19[COMRAM] PTR struct _IO_FILE
  5815 ;;		 -> sprintf@f(12), 
  5816 ;; Auto vars:     Size  Location     Type
  5817 ;;		None
  5818 ;; Return value:  Size  Location     Type
  5819 ;;                  2   17[COMRAM] int 
  5820 ;; Registers used:
  5821 ;;		wreg, fsr1l, fsr1h, fsr2l, fsr2h, status,2, status,0, cstack
  5822 ;; Tracked objects:
  5823 ;;		On entry : 0/0
  5824 ;;		On exit  : 0/0
  5825 ;;		Unchanged: 0/0
  5826 ;; Data sizes:     COMRAM   BANK0   BANK1   BANK2   BANK3   BANK4   BANK5   BANK6   BANK7   BANK8   BANK9  BANK10  BANK1
      +1  BANK12  BANK13  BANK14  BANK15
  5827 ;;      Params:         4       0       0       0       0       0       0       0       0       0       0       0       
      +0       0       0       0       0
  5828 ;;      Locals:         0       0       0       0       0       0       0       0       0       0       0       0       
      +0       0       0       0       0
  5829 ;;      Temps:          5       0       0       0       0       0       0       0       0       0       0       0       
      +0       0       0       0       0
  5830 ;;      Totals:         9       0       0       0       0       0       0       0       0       0       0       0       
      +0       0       0       0       0
  5831 ;;Total ram usage:        9 bytes
  5832 ;; Hardware stack levels used: 1
  5833 ;; Hardware stack levels required when called: 6
  5834 ;; This function calls:
  5835 ;;		_putch
  5836 ;; This function is called by:
  5837 ;;		_vfpfcnvrt
  5838 ;; This function uses a non-reentrant model
  5839 ;;
  5840                           
  5841                           	psect	text30
  5842   0021C0                     __ptext30:
  5843                           	callstack 0
  5844   0021C0                     _fputc:
  5845                           	callstack 20
  5846   0021C0  5014               	movf	fputc@fp^0,w,c
  5847   0021C2  1015               	iorwf	(fputc@fp+1)^0,w,c
  5848   0021C4  B4D8               	btfsc	status,2,c
  5849   0021C6  EFE7  F010         	goto	u5701
  5850   0021CA  EFE9  F010         	goto	u5700
  5851   0021CE                     u5701:
  5852   0021CE  EFF2  F010         	goto	l6451
  5853   0021D2                     u5700:
  5854   0021D2  5014               	movf	fputc@fp^0,w,c
  5855   0021D4  1015               	iorwf	(fputc@fp+1)^0,w,c
  5856   0021D6  A4D8               	btfss	status,2,c
  5857   0021D8  EFF0  F010         	goto	u5711
  5858   0021DC  EFF2  F010         	goto	u5710
  5859   0021E0                     u5711:
  5860   0021E0  EFF7  F010         	goto	l6453
  5861   0021E4                     u5710:
  5862   0021E4                     l6451:
  5863   0021E4  5012               	movf	fputc@c^0,w,c
  5864   0021E6  EC14  F019         	call	_putch
  5865   0021EA  EF3C  F011         	goto	l1898
  5866   0021EE                     l6453:
  5867   0021EE  EE20 F00A          	lfsr	2,10
  5868   0021F2  5014               	movf	fputc@fp^0,w,c
  5869   0021F4  26D9               	addwf	fsr2l,f,c
  5870   0021F6  5015               	movf	(fputc@fp+1)^0,w,c
  5871   0021F8  22DA               	addwfc	fsr2h,f,c
  5872   0021FA  50DE               	movf	postinc2,w,c
  5873   0021FC  10DE               	iorwf	postinc2,w,c
  5874   0021FE  B4D8               	btfsc	status,2,c
  5875   002200  EF04  F011         	goto	u5721
  5876   002204  EF06  F011         	goto	u5720
  5877   002208                     u5721:
  5878   002208  EF21  F011         	goto	l6457
  5879   00220C                     u5720:
  5880   00220C  EE20 F00A          	lfsr	2,10
  5881   002210  5014               	movf	fputc@fp^0,w,c
  5882   002212  26D9               	addwf	fsr2l,f,c
  5883   002214  5015               	movf	(fputc@fp+1)^0,w,c
  5884   002216  22DA               	addwfc	fsr2h,f,c
  5885   002218  EE10 F003          	lfsr	1,3
  5886   00221C  5014               	movf	fputc@fp^0,w,c
  5887   00221E  26E1               	addwf	fsr1l,f,c
  5888   002220  5015               	movf	(fputc@fp+1)^0,w,c
  5889   002222  22E2               	addwfc	fsr1h,f,c
  5890   002224  50DE               	movf	postinc2,w,c
  5891   002226  5CE6               	subwf	postinc1,w,c
  5892   002228  50E6               	movf	postinc1,w,c
  5893   00222A  0A80               	xorlw	128
  5894   00222C  6E1A               	movwf	(??_fputc+4)^0,c
  5895   00222E  50DE               	movf	postinc2,w,c
  5896   002230  0A80               	xorlw	128
  5897   002232  581A               	subwfb	(??_fputc+4)^0,w,c
  5898   002234  B0D8               	btfsc	status,0,c
  5899   002236  EF1F  F011         	goto	u5731
  5900   00223A  EF21  F011         	goto	u5730
  5901   00223E                     u5731:
  5902   00223E  EF3C  F011         	goto	l1898
  5903   002242                     u5730:
  5904   002242                     l6457:
  5905   002242  EE20 F003          	lfsr	2,3
  5906   002246  5014               	movf	fputc@fp^0,w,c
  5907   002248  26D9               	addwf	fsr2l,f,c
  5908   00224A  5015               	movf	(fputc@fp+1)^0,w,c
  5909   00224C  22DA               	addwfc	fsr2h,f,c
  5910   00224E  50DF               	movf	indf2,w,c
  5911   002250  6E16               	movwf	??_fputc^0,c
  5912   002252  C014  FFD9         	movff	fputc@fp,fsr2l
  5913   002256  C015  FFDA         	movff	fputc@fp+1,fsr2h
  5914   00225A  50DF               	movf	indf2,w,c
  5915   00225C  2416               	addwf	??_fputc^0,w,c
  5916   00225E  6ED9               	movwf	fsr2l,c
  5917   002260  6ADA               	clrf	fsr2h,c
  5918   002262  C012  FFDF         	movff	fputc@c,indf2
  5919   002266  EE20 F003          	lfsr	2,3
  5920   00226A  5014               	movf	fputc@fp^0,w,c
  5921   00226C  26D9               	addwf	fsr2l,f,c
  5922   00226E  5015               	movf	(fputc@fp+1)^0,w,c
  5923   002270  22DA               	addwfc	fsr2h,f,c
  5924   002272  2ADE               	incf	postinc2,f,c
  5925   002274  0E00               	movlw	0
  5926   002276  22DD               	addwfc	postdec2,f,c
  5927   002278                     l1898:
  5928   002278  0012               	return		;funcret
  5929   00227A                     __end_of_fputc:
  5930                           	callstack 0
  5931                           
  5932 ;; *************** function _putch *****************
  5933 ;; Defined at:
  5934 ;;		line 7 in file "C:\Program Files\Microchip\xc8\v2.45\pic\sources\c99\common\putch.c"
  5935 ;; Parameters:    Size  Location     Type
  5936 ;;  c               1    wreg     unsigned char 
  5937 ;; Auto vars:     Size  Location     Type
  5938 ;;  c               1    0[COMRAM] unsigned char 
  5939 ;; Return value:  Size  Location     Type
  5940 ;;                  1    wreg      void 
  5941 ;; Registers used:
  5942 ;;		wreg
  5943 ;; Tracked objects:
  5944 ;;		On entry : 0/0
  5945 ;;		On exit  : 0/0
  5946 ;;		Unchanged: 0/0
  5947 ;; Data sizes:     COMRAM   BANK0   BANK1   BANK2   BANK3   BANK4   BANK5   BANK6   BANK7   BANK8   BANK9  BANK10  BANK1
      +1  BANK12  BANK13  BANK14  BANK15
  5948 ;;      Params:         0       0       0       0       0       0       0       0       0       0       0       0       
      +0       0       0       0       0
  5949 ;;      Locals:         0       0       0       0       0       0       0       0       0       0       0       0       
      +0       0       0       0       0
  5950 ;;      Temps:          0       0       0       0       0       0       0       0       0       0       0       0       
      +0       0       0       0       0
  5951 ;;      Totals:         0       0       0       0       0       0       0       0       0       0       0       0       
      +0       0       0       0       0
  5952 ;;Total ram usage:        0 bytes
  5953 ;; Hardware stack levels used: 1
  5954 ;; Hardware stack levels required when called: 5
  5955 ;; This function calls:
  5956 ;;		Nothing
  5957 ;; This function is called by:
  5958 ;;		_fputc
  5959 ;; This function uses a non-reentrant model
  5960 ;;
  5961                           
  5962                           	psect	text31
  5963   003228                     __ptext31:
  5964                           	callstack 0
  5965   003228                     _putch:
  5966                           	callstack 20
  5967   003228  0012               	return		;funcret
  5968   00322A                     __end_of_putch:
  5969                           	callstack 0
  5970                           
  5971 ;; *************** function _abs *****************
  5972 ;; Defined at:
  5973 ;;		line 1 in file "C:\Program Files\Microchip\xc8\v2.45\pic\sources\c99\common\abs.c"
  5974 ;; Parameters:    Size  Location     Type
  5975 ;;  a               2   23[COMRAM] int 
  5976 ;; Auto vars:     Size  Location     Type
  5977 ;;		None
  5978 ;; Return value:  Size  Location     Type
  5979 ;;                  2   23[COMRAM] int 
  5980 ;; Registers used:
  5981 ;;		wreg, status,2, status,0
  5982 ;; Tracked objects:
  5983 ;;		On entry : 0/0
  5984 ;;		On exit  : 0/0
  5985 ;;		Unchanged: 0/0
  5986 ;; Data sizes:     COMRAM   BANK0   BANK1   BANK2   BANK3   BANK4   BANK5   BANK6   BANK7   BANK8   BANK9  BANK10  BANK1
      +1  BANK12  BANK13  BANK14  BANK15
  5987 ;;      Params:         2       0       0       0       0       0       0       0       0       0       0       0       
      +0       0       0       0       0
  5988 ;;      Locals:         0       0       0       0       0       0       0       0       0       0       0       0       
      +0       0       0       0       0
  5989 ;;      Temps:          2       0       0       0       0       0       0       0       0       0       0       0       
      +0       0       0       0       0
  5990 ;;      Totals:         4       0       0       0       0       0       0       0       0       0       0       0       
      +0       0       0       0       0
  5991 ;;Total ram usage:        4 bytes
  5992 ;; Hardware stack levels used: 1
  5993 ;; Hardware stack levels required when called: 5
  5994 ;; This function calls:
  5995 ;;		Nothing
  5996 ;; This function is called by:
  5997 ;;		_vfpfcnvrt
  5998 ;; This function uses a non-reentrant model
  5999 ;;
  6000                           
  6001                           	psect	text32
  6002   003096                     __ptext32:
  6003                           	callstack 0
  6004   003096                     _abs:
  6005                           	callstack 21
  6006   003096  BE19               	btfsc	(abs@a+1)^0,7,c
  6007   003098  EF50  F018         	goto	u5741
  6008   00309C  EF52  F018         	goto	u5740
  6009   0030A0                     u5741:
  6010   0030A0  EF58  F018         	goto	l1883
  6011   0030A4                     u5740:
  6012   0030A4  C018  F018         	movff	abs@a,?_abs
  6013   0030A8  C019  F019         	movff	abs@a+1,?_abs+1
  6014   0030AC  EF64  F018         	goto	l1886
  6015   0030B0                     l1883:
  6016   0030B0  C018  F01A         	movff	abs@a,??_abs
  6017   0030B4  C019  F01B         	movff	abs@a+1,??_abs+1
  6018   0030B8  1E1A               	comf	??_abs^0,f,c
  6019   0030BA  1E1B               	comf	(??_abs+1)^0,f,c
  6020   0030BC  4A1A               	infsnz	??_abs^0,f,c
  6021   0030BE  2A1B               	incf	(??_abs+1)^0,f,c
  6022   0030C0  C01A  F018         	movff	??_abs,?_abs
  6023   0030C4  C01B  F019         	movff	??_abs+1,?_abs+1
  6024   0030C8                     l1886:
  6025   0030C8  0012               	return		;funcret
  6026   0030CA                     __end_of_abs:
  6027                           	callstack 0
  6028                           
  6029 ;; *************** function ___awmod *****************
  6030 ;; Defined at:
  6031 ;;		line 7 in file "C:\Program Files\Microchip\xc8\v2.45\pic\sources\c99\common\awmod.c"
  6032 ;; Parameters:    Size  Location     Type
  6033 ;;  dividend        2   17[COMRAM] int 
  6034 ;;  divisor         2   19[COMRAM] int 
  6035 ;; Auto vars:     Size  Location     Type
  6036 ;;  sign            1   22[COMRAM] unsigned char 
  6037 ;;  counter         1   21[COMRAM] unsigned char 
  6038 ;; Return value:  Size  Location     Type
  6039 ;;                  2   17[COMRAM] int 
  6040 ;; Registers used:
  6041 ;;		wreg, status,2, status,0
  6042 ;; Tracked objects:
  6043 ;;		On entry : 0/0
  6044 ;;		On exit  : 0/0
  6045 ;;		Unchanged: 0/0
  6046 ;; Data sizes:     COMRAM   BANK0   BANK1   BANK2   BANK3   BANK4   BANK5   BANK6   BANK7   BANK8   BANK9  BANK10  BANK1
      +1  BANK12  BANK13  BANK14  BANK15
  6047 ;;      Params:         4       0       0       0       0       0       0       0       0       0       0       0       
      +0       0       0       0       0
  6048 ;;      Locals:         2       0       0       0       0       0       0       0       0       0       0       0       
      +0       0       0       0       0
  6049 ;;      Temps:          0       0       0       0       0       0       0       0       0       0       0       0       
      +0       0       0       0       0
  6050 ;;      Totals:         6       0       0       0       0       0       0       0       0       0       0       0       
      +0       0       0       0       0
  6051 ;;Total ram usage:        6 bytes
  6052 ;; Hardware stack levels used: 1
  6053 ;; Hardware stack levels required when called: 5
  6054 ;; This function calls:
  6055 ;;		Nothing
  6056 ;; This function is called by:
  6057 ;;		_vfpfcnvrt
  6058 ;; This function uses a non-reentrant model
  6059 ;;
  6060                           
  6061                           	psect	text33
  6062   00232A                     __ptext33:
  6063                           	callstack 0
  6064   00232A                     ___awmod:
  6065                           	callstack 21
  6066   00232A  0E00               	movlw	0
  6067   00232C  6E17               	movwf	___awmod@sign^0,c
  6068   00232E  BE13               	btfsc	(___awmod@dividend+1)^0,7,c
  6069   002330  EF9E  F011         	goto	u5640
  6070   002334  EF9C  F011         	goto	u5641
  6071   002338                     u5641:
  6072   002338  EFA4  F011         	goto	l6419
  6073   00233C                     u5640:
  6074   00233C  6C12               	negf	___awmod@dividend^0,c
  6075   00233E  1E13               	comf	(___awmod@dividend+1)^0,f,c
  6076   002340  B0D8               	btfsc	status,0,c
  6077   002342  2A13               	incf	(___awmod@dividend+1)^0,f,c
  6078   002344  0E01               	movlw	1
  6079   002346  6E17               	movwf	___awmod@sign^0,c
  6080   002348                     l6419:
  6081   002348  BE15               	btfsc	(___awmod@divisor+1)^0,7,c
  6082   00234A  EFAB  F011         	goto	u5650
  6083   00234E  EFA9  F011         	goto	u5651
  6084   002352                     u5651:
  6085   002352  EFAF  F011         	goto	l6423
  6086   002356                     u5650:
  6087   002356  6C14               	negf	___awmod@divisor^0,c
  6088   002358  1E15               	comf	(___awmod@divisor+1)^0,f,c
  6089   00235A  B0D8               	btfsc	status,0,c
  6090   00235C  2A15               	incf	(___awmod@divisor+1)^0,f,c
  6091   00235E                     l6423:
  6092   00235E  5014               	movf	___awmod@divisor^0,w,c
  6093   002360  1015               	iorwf	(___awmod@divisor+1)^0,w,c
  6094   002362  B4D8               	btfsc	status,2,c
  6095   002364  EFB6  F011         	goto	u5661
  6096   002368  EFB8  F011         	goto	u5660
  6097   00236C                     u5661:
  6098   00236C  EFDC  F011         	goto	l6439
  6099   002370                     u5660:
  6100   002370  0E01               	movlw	1
  6101   002372  6E16               	movwf	___awmod@counter^0,c
  6102   002374  EFC0  F011         	goto	l6429
  6103   002378                     l6427:
  6104   002378  90D8               	bcf	status,0,c
  6105   00237A  3614               	rlcf	___awmod@divisor^0,f,c
  6106   00237C  3615               	rlcf	(___awmod@divisor+1)^0,f,c
  6107   00237E  2A16               	incf	___awmod@counter^0,f,c
  6108   002380                     l6429:
  6109   002380  AE15               	btfss	(___awmod@divisor+1)^0,7,c
  6110   002382  EFC5  F011         	goto	u5671
  6111   002386  EFC7  F011         	goto	u5670
  6112   00238A                     u5671:
  6113   00238A  EFBC  F011         	goto	l6427
  6114   00238E                     u5670:
  6115   00238E                     l6431:
  6116   00238E  5014               	movf	___awmod@divisor^0,w,c
  6117   002390  5C12               	subwf	___awmod@dividend^0,w,c
  6118   002392  5015               	movf	(___awmod@divisor+1)^0,w,c
  6119   002394  5813               	subwfb	(___awmod@dividend+1)^0,w,c
  6120   002396  A0D8               	btfss	status,0,c
  6121   002398  EFD0  F011         	goto	u5681
  6122   00239C  EFD2  F011         	goto	u5680
  6123   0023A0                     u5681:
  6124   0023A0  EFD6  F011         	goto	l6435
  6125   0023A4                     u5680:
  6126   0023A4  5014               	movf	___awmod@divisor^0,w,c
  6127   0023A6  5E12               	subwf	___awmod@dividend^0,f,c
  6128   0023A8  5015               	movf	(___awmod@divisor+1)^0,w,c
  6129   0023AA  5A13               	subwfb	(___awmod@dividend+1)^0,f,c
  6130   0023AC                     l6435:
  6131   0023AC  90D8               	bcf	status,0,c
  6132   0023AE  3215               	rrcf	(___awmod@divisor+1)^0,f,c
  6133   0023B0  3214               	rrcf	___awmod@divisor^0,f,c
  6134   0023B2  2E16               	decfsz	___awmod@counter^0,f,c
  6135   0023B4  EFC7  F011         	goto	l6431
  6136   0023B8                     l6439:
  6137   0023B8  5017               	movf	___awmod@sign^0,w,c
  6138   0023BA  B4D8               	btfsc	status,2,c
  6139   0023BC  EFE2  F011         	goto	u5691
  6140   0023C0  EFE4  F011         	goto	u5690
  6141   0023C4                     u5691:
  6142   0023C4  EFE8  F011         	goto	l6443
  6143   0023C8                     u5690:
  6144   0023C8  6C12               	negf	___awmod@dividend^0,c
  6145   0023CA  1E13               	comf	(___awmod@dividend+1)^0,f,c
  6146   0023CC  B0D8               	btfsc	status,0,c
  6147   0023CE  2A13               	incf	(___awmod@dividend+1)^0,f,c
  6148   0023D0                     l6443:
  6149   0023D0  C012  F012         	movff	___awmod@dividend,?___awmod
  6150   0023D4  C013  F013         	movff	___awmod@dividend+1,?___awmod+1
  6151   0023D8  0012               	return		;funcret
  6152   0023DA                     __end_of___awmod:
  6153                           	callstack 0
  6154                           
  6155 ;; *************** function ___awdiv *****************
  6156 ;; Defined at:
  6157 ;;		line 7 in file "C:\Program Files\Microchip\xc8\v2.45\pic\sources\c99\common\awdiv.c"
  6158 ;; Parameters:    Size  Location     Type
  6159 ;;  dividend        2   17[COMRAM] int 
  6160 ;;  divisor         2   19[COMRAM] int 
  6161 ;; Auto vars:     Size  Location     Type
  6162 ;;  quotient        2   23[COMRAM] int 
  6163 ;;  sign            1   22[COMRAM] unsigned char 
  6164 ;;  counter         1   21[COMRAM] unsigned char 
  6165 ;; Return value:  Size  Location     Type
  6166 ;;                  2   17[COMRAM] int 
  6167 ;; Registers used:
  6168 ;;		wreg, status,2, status,0
  6169 ;; Tracked objects:
  6170 ;;		On entry : 0/0
  6171 ;;		On exit  : 0/0
  6172 ;;		Unchanged: 0/0
  6173 ;; Data sizes:     COMRAM   BANK0   BANK1   BANK2   BANK3   BANK4   BANK5   BANK6   BANK7   BANK8   BANK9  BANK10  BANK1
      +1  BANK12  BANK13  BANK14  BANK15
  6174 ;;      Params:         4       0       0       0       0       0       0       0       0       0       0       0       
      +0       0       0       0       0
  6175 ;;      Locals:         4       0       0       0       0       0       0       0       0       0       0       0       
      +0       0       0       0       0
  6176 ;;      Temps:          0       0       0       0       0       0       0       0       0       0       0       0       
      +0       0       0       0       0
  6177 ;;      Totals:         8       0       0       0       0       0       0       0       0       0       0       0       
      +0       0       0       0       0
  6178 ;;Total ram usage:        8 bytes
  6179 ;; Hardware stack levels used: 1
  6180 ;; Hardware stack levels required when called: 5
  6181 ;; This function calls:
  6182 ;;		Nothing
  6183 ;; This function is called by:
  6184 ;;		_vfpfcnvrt
  6185 ;; This function uses a non-reentrant model
  6186 ;;
  6187                           
  6188                           	psect	text34
  6189   0020FC                     __ptext34:
  6190                           	callstack 0
  6191   0020FC                     ___awdiv:
  6192                           	callstack 21
  6193   0020FC  0E00               	movlw	0
  6194   0020FE  6E17               	movwf	___awdiv@sign^0,c
  6195   002100  BE15               	btfsc	(___awdiv@divisor+1)^0,7,c
  6196   002102  EF87  F010         	goto	u5580
  6197   002106  EF85  F010         	goto	u5581
  6198   00210A                     u5581:
  6199   00210A  EF8D  F010         	goto	l6375
  6200   00210E                     u5580:
  6201   00210E  6C14               	negf	___awdiv@divisor^0,c
  6202   002110  1E15               	comf	(___awdiv@divisor+1)^0,f,c
  6203   002112  B0D8               	btfsc	status,0,c
  6204   002114  2A15               	incf	(___awdiv@divisor+1)^0,f,c
  6205   002116  0E01               	movlw	1
  6206   002118  6E17               	movwf	___awdiv@sign^0,c
  6207   00211A                     l6375:
  6208   00211A  BE13               	btfsc	(___awdiv@dividend+1)^0,7,c
  6209   00211C  EF94  F010         	goto	u5590
  6210   002120  EF92  F010         	goto	u5591
  6211   002124                     u5591:
  6212   002124  EF9A  F010         	goto	l6381
  6213   002128                     u5590:
  6214   002128  6C12               	negf	___awdiv@dividend^0,c
  6215   00212A  1E13               	comf	(___awdiv@dividend+1)^0,f,c
  6216   00212C  B0D8               	btfsc	status,0,c
  6217   00212E  2A13               	incf	(___awdiv@dividend+1)^0,f,c
  6218   002130  0E01               	movlw	1
  6219   002132  1A17               	xorwf	___awdiv@sign^0,f,c
  6220   002134                     l6381:
  6221   002134  0E00               	movlw	0
  6222   002136  6E19               	movwf	(___awdiv@quotient+1)^0,c
  6223   002138  0E00               	movlw	0
  6224   00213A  6E18               	movwf	___awdiv@quotient^0,c
  6225   00213C  5014               	movf	___awdiv@divisor^0,w,c
  6226   00213E  1015               	iorwf	(___awdiv@divisor+1)^0,w,c
  6227   002140  B4D8               	btfsc	status,2,c
  6228   002142  EFA5  F010         	goto	u5601
  6229   002146  EFA7  F010         	goto	u5600
  6230   00214A                     u5601:
  6231   00214A  EFCF  F010         	goto	l6403
  6232   00214E                     u5600:
  6233   00214E  0E01               	movlw	1
  6234   002150  6E16               	movwf	___awdiv@counter^0,c
  6235   002152  EFAF  F010         	goto	l6389
  6236   002156                     l6387:
  6237   002156  90D8               	bcf	status,0,c
  6238   002158  3614               	rlcf	___awdiv@divisor^0,f,c
  6239   00215A  3615               	rlcf	(___awdiv@divisor+1)^0,f,c
  6240   00215C  2A16               	incf	___awdiv@counter^0,f,c
  6241   00215E                     l6389:
  6242   00215E  AE15               	btfss	(___awdiv@divisor+1)^0,7,c
  6243   002160  EFB4  F010         	goto	u5611
  6244   002164  EFB6  F010         	goto	u5610
  6245   002168                     u5611:
  6246   002168  EFAB  F010         	goto	l6387
  6247   00216C                     u5610:
  6248   00216C                     l6391:
  6249   00216C  90D8               	bcf	status,0,c
  6250   00216E  3618               	rlcf	___awdiv@quotient^0,f,c
  6251   002170  3619               	rlcf	(___awdiv@quotient+1)^0,f,c
  6252   002172  5014               	movf	___awdiv@divisor^0,w,c
  6253   002174  5C12               	subwf	___awdiv@dividend^0,w,c
  6254   002176  5015               	movf	(___awdiv@divisor+1)^0,w,c
  6255   002178  5813               	subwfb	(___awdiv@dividend+1)^0,w,c
  6256   00217A  A0D8               	btfss	status,0,c
  6257   00217C  EFC2  F010         	goto	u5621
  6258   002180  EFC4  F010         	goto	u5620
  6259   002184                     u5621:
  6260   002184  EFC9  F010         	goto	l6399
  6261   002188                     u5620:
  6262   002188  5014               	movf	___awdiv@divisor^0,w,c
  6263   00218A  5E12               	subwf	___awdiv@dividend^0,f,c
  6264   00218C  5015               	movf	(___awdiv@divisor+1)^0,w,c
  6265   00218E  5A13               	subwfb	(___awdiv@dividend+1)^0,f,c
  6266   002190  8018               	bsf	___awdiv@quotient^0,0,c
  6267   002192                     l6399:
  6268   002192  90D8               	bcf	status,0,c
  6269   002194  3215               	rrcf	(___awdiv@divisor+1)^0,f,c
  6270   002196  3214               	rrcf	___awdiv@divisor^0,f,c
  6271   002198  2E16               	decfsz	___awdiv@counter^0,f,c
  6272   00219A  EFB6  F010         	goto	l6391
  6273   00219E                     l6403:
  6274   00219E  5017               	movf	___awdiv@sign^0,w,c
  6275   0021A0  B4D8               	btfsc	status,2,c
  6276   0021A2  EFD5  F010         	goto	u5631
  6277   0021A6  EFD7  F010         	goto	u5630
  6278   0021AA                     u5631:
  6279   0021AA  EFDB  F010         	goto	l6407
  6280   0021AE                     u5630:
  6281   0021AE  6C18               	negf	___awdiv@quotient^0,c
  6282   0021B0  1E19               	comf	(___awdiv@quotient+1)^0,f,c
  6283   0021B2  B0D8               	btfsc	status,0,c
  6284   0021B4  2A19               	incf	(___awdiv@quotient+1)^0,f,c
  6285   0021B6                     l6407:
  6286   0021B6  C018  F012         	movff	___awdiv@quotient,?___awdiv
  6287   0021BA  C019  F013         	movff	___awdiv@quotient+1,?___awdiv+1
  6288   0021BE  0012               	return		;funcret
  6289   0021C0                     __end_of___awdiv:
  6290                           	callstack 0
  6291                           
  6292 ;; *************** function _memset *****************
  6293 ;; Defined at:
  6294 ;;		line 3 in file "C:\Program Files\Microchip\xc8\v2.45\pic\sources\c99\common\memset.c"
  6295 ;; Parameters:    Size  Location     Type
  6296 ;;  dest            1   17[COMRAM] PTR void 
  6297 ;;		 -> result_txt(6), YourPass(6), 
  6298 ;;  c               2   18[COMRAM] int 
  6299 ;;  n               2   20[COMRAM] unsigned int 
  6300 ;; Auto vars:     Size  Location     Type
  6301 ;;  p               1   22[COMRAM] PTR unsigned char 
  6302 ;;		 -> result_txt(6), YourPass(6), 
  6303 ;; Return value:  Size  Location     Type
  6304 ;;                  1    wreg      PTR void 
  6305 ;; Registers used:
  6306 ;;		wreg, fsr2l, fsr2h, status,2, status,0
  6307 ;; Tracked objects:
  6308 ;;		On entry : 0/0
  6309 ;;		On exit  : 0/0
  6310 ;;		Unchanged: 0/0
  6311 ;; Data sizes:     COMRAM   BANK0   BANK1   BANK2   BANK3   BANK4   BANK5   BANK6   BANK7   BANK8   BANK9  BANK10  BANK1
      +1  BANK12  BANK13  BANK14  BANK15
  6312 ;;      Params:         5       0       0       0       0       0       0       0       0       0       0       0       
      +0       0       0       0       0
  6313 ;;      Locals:         1       0       0       0       0       0       0       0       0       0       0       0       
      +0       0       0       0       0
  6314 ;;      Temps:          0       0       0       0       0       0       0       0       0       0       0       0       
      +0       0       0       0       0
  6315 ;;      Totals:         6       0       0       0       0       0       0       0       0       0       0       0       
      +0       0       0       0       0
  6316 ;;Total ram usage:        6 bytes
  6317 ;; Hardware stack levels used: 1
  6318 ;; Hardware stack levels required when called: 5
  6319 ;; This function calls:
  6320 ;;		Nothing
  6321 ;; This function is called by:
  6322 ;;		_convert_byte_to_string
  6323 ;;		_convert_short_to_string
  6324 ;;		_convert_int_to_string
  6325 ;; This function uses a non-reentrant model
  6326 ;;
  6327                           
  6328                           	psect	text35
  6329   0030CA                     __ptext35:
  6330                           	callstack 0
  6331   0030CA                     _memset:
  6332                           	callstack 24
  6333   0030CA  C012  F017         	movff	memset@dest,memset@p
  6334   0030CE  EF6F  F018         	goto	l6025
  6335   0030D2                     l6021:
  6336   0030D2  5017               	movf	memset@p^0,w,c
  6337   0030D4  6ED9               	movwf	fsr2l,c
  6338   0030D6  6ADA               	clrf	fsr2h,c
  6339   0030D8  C013  FFDF         	movff	memset@c,indf2
  6340   0030DC  2A17               	incf	memset@p^0,f,c
  6341   0030DE                     l6025:
  6342   0030DE  0615               	decf	memset@n^0,f,c
  6343   0030E0  A0D8               	btfss	status,0,c
  6344   0030E2  0616               	decf	(memset@n+1)^0,f,c
  6345   0030E4  2815               	incf	memset@n^0,w,c
  6346   0030E6  E106               	bnz	u5461
  6347   0030E8  2816               	incf	(memset@n+1)^0,w,c
  6348   0030EA  A4D8               	btfss	status,2,c
  6349   0030EC  EF7A  F018         	goto	u5461
  6350   0030F0  EF7C  F018         	goto	u5460
  6351   0030F4                     u5461:
  6352   0030F4  EF69  F018         	goto	l6021
  6353   0030F8                     u5460:
  6354   0030F8  0012               	return		;funcret
  6355   0030FA                     __end_of_memset:
  6356                           	callstack 0
  6357                           
  6358 ;; *************** function ___wmul *****************
  6359 ;; Defined at:
  6360 ;;		line 15 in file "C:\Program Files\Microchip\xc8\v2.45\pic\sources\c99\common\Umul16.c"
  6361 ;; Parameters:    Size  Location     Type
  6362 ;;  multiplier      2   17[COMRAM] unsigned int 
  6363 ;;  multiplicand    2   19[COMRAM] unsigned int 
  6364 ;; Auto vars:     Size  Location     Type
  6365 ;;  product         2   21[COMRAM] unsigned int 
  6366 ;; Return value:  Size  Location     Type
  6367 ;;                  2   17[COMRAM] unsigned int 
  6368 ;; Registers used:
  6369 ;;		wreg, status,2, status,0, prodl, prodh
  6370 ;; Tracked objects:
  6371 ;;		On entry : 0/0
  6372 ;;		On exit  : 0/0
  6373 ;;		Unchanged: 0/0
  6374 ;; Data sizes:     COMRAM   BANK0   BANK1   BANK2   BANK3   BANK4   BANK5   BANK6   BANK7   BANK8   BANK9  BANK10  BANK1
      +1  BANK12  BANK13  BANK14  BANK15
  6375 ;;      Params:         4       0       0       0       0       0       0       0       0       0       0       0       
      +0       0       0       0       0
  6376 ;;      Locals:         2       0       0       0       0       0       0       0       0       0       0       0       
      +0       0       0       0       0
  6377 ;;      Temps:          0       0       0       0       0       0       0       0       0       0       0       0       
      +0       0       0       0       0
  6378 ;;      Totals:         6       0       0       0       0       0       0       0       0       0       0       0       
      +0       0       0       0       0
  6379 ;;Total ram usage:        6 bytes
  6380 ;; Hardware stack levels used: 1
  6381 ;; Hardware stack levels required when called: 5
  6382 ;; This function calls:
  6383 ;;		Nothing
  6384 ;; This function is called by:
  6385 ;;		_main
  6386 ;; This function uses a non-reentrant model
  6387 ;;
  6388                           
  6389                           	psect	text36
  6390   0031AE                     __ptext36:
  6391                           	callstack 0
  6392   0031AE                     ___wmul:
  6393                           	callstack 25
  6394   0031AE  5012               	movf	___wmul@multiplier^0,w,c
  6395   0031B0  0214               	mulwf	___wmul@multiplicand^0,c
  6396   0031B2  CFF3 F016          	movff	prodl,___wmul@product
  6397   0031B6  CFF4 F017          	movff	prodh,___wmul@product+1
  6398   0031BA  5012               	movf	___wmul@multiplier^0,w,c
  6399   0031BC  0215               	mulwf	(___wmul@multiplicand+1)^0,c
  6400   0031BE  50F3               	movf	243,w,c
  6401   0031C0  2617               	addwf	(___wmul@product+1)^0,f,c
  6402   0031C2  5013               	movf	(___wmul@multiplier+1)^0,w,c
  6403   0031C4  0214               	mulwf	___wmul@multiplicand^0,c
  6404   0031C6  50F3               	movf	243,w,c
  6405   0031C8  2617               	addwf	(___wmul@product+1)^0,f,c
  6406   0031CA  C016  F012         	movff	___wmul@product,?___wmul
  6407   0031CE  C017  F013         	movff	___wmul@product+1,?___wmul+1
  6408   0031D2  0012               	return		;funcret
  6409   0031D4                     __end_of___wmul:
  6410                           	callstack 0
  6411                           
  6412 ;; *************** function _INTERRUPT_MANGER_ *****************
  6413 ;; Defined at:
  6414 ;;		line 26 in file "MCAL_Layer/Interrupts/mcal_interrupt_manger.c"
  6415 ;; Parameters:    Size  Location     Type
  6416 ;;		None
  6417 ;; Auto vars:     Size  Location     Type
  6418 ;;		None
  6419 ;; Return value:  Size  Location     Type
  6420 ;;                  1    wreg      void 
  6421 ;; Registers used:
  6422 ;;		wreg, fsr2l, fsr2h, status,2, status,0, pcl, pclath, pclatu, tosl, prodl, prodh, cstack
  6423 ;; Tracked objects:
  6424 ;;		On entry : 0/0
  6425 ;;		On exit  : 0/0
  6426 ;;		Unchanged: 0/0
  6427 ;; Data sizes:     COMRAM   BANK0   BANK1   BANK2   BANK3   BANK4   BANK5   BANK6   BANK7   BANK8   BANK9  BANK10  BANK1
      +1  BANK12  BANK13  BANK14  BANK15
  6428 ;;      Params:         0       0       0       0       0       0       0       0       0       0       0       0       
      +0       0       0       0       0
  6429 ;;      Locals:         0       0       0       0       0       0       0       0       0       0       0       0       
      +0       0       0       0       0
  6430 ;;      Temps:          6       0       0       0       0       0       0       0       0       0       0       0       
      +0       0       0       0       0
  6431 ;;      Totals:         6       0       0       0       0       0       0       0       0       0       0       0       
      +0       0       0       0       0
  6432 ;;Total ram usage:        6 bytes
  6433 ;; Hardware stack levels used: 1
  6434 ;; Hardware stack levels required when called: 4
  6435 ;; This function calls:
  6436 ;;		_ADC_ISR
  6437 ;;		_INT0_ISR
  6438 ;;		_INT1_ISR
  6439 ;;		_INT2_ISR
  6440 ;;		_RB4_ISR
  6441 ;;		_RB5_ISR
  6442 ;;		_RB6_ISR
  6443 ;;		_RB7_ISR
  6444 ;; This function is called by:
  6445 ;;		Interrupt level 2
  6446 ;; This function uses a non-reentrant model
  6447 ;;
  6448                           
  6449                           	psect	intcode
  6450   000008                     __pintcode:
  6451                           	callstack 0
  6452   000008                     _INTERRUPT_MANGER_:
  6453                           	callstack 20
  6454                           
  6455                           ;incstack = 0
  6456   000008  826E               	bsf	int$flags,1,c	;set compiler interrupt flag (level 2)
  6457   00000A  ED9A  F00B         	call	int_func,f	;refresh shadow registers
  6458                           
  6459                           	psect	intcode_body
  6460   001734                     __pintcode_body:
  6461                           	callstack 20
  6462   001734                     int_func:
  6463                           	callstack 20
  6464   001734  0006               	pop		; remove dummy address from shadow register refresh
  6465   001736  CFFA F00C          	movff	pclath,??_INTERRUPT_MANGER_
  6466   00173A  CFFB F00D          	movff	pclatu,??_INTERRUPT_MANGER_+1
  6467   00173E  CFD9 F00E          	movff	fsr2l,??_INTERRUPT_MANGER_+2
  6468   001742  CFDA F00F          	movff	fsr2h,??_INTERRUPT_MANGER_+3
  6469   001746  CFF3 F010          	movff	prodl,??_INTERRUPT_MANGER_+4
  6470   00174A  CFF4 F011          	movff	prodh,??_INTERRUPT_MANGER_+5
  6471   00174E                     
  6472                           ;MCAL_Layer/Interrupts/mcal_interrupt_manger.c: 28:     if((1 == INTCONbits.INT0IE) && (
      +                          1 == INTCONbits.INT0IF))
  6473   00174E  A8F2               	btfss	242,4,c	;volatile
  6474   001750  EFAC  F00B         	goto	i2u470_41
  6475   001754  EFAE  F00B         	goto	i2u470_40
  6476   001758                     i2u470_41:
  6477   001758  EFB7  F00B         	goto	i2l1028
  6478   00175C                     i2u470_40:
  6479   00175C  A2F2               	btfss	242,1,c	;volatile
  6480   00175E  EFB3  F00B         	goto	i2u471_41
  6481   001762  EFB5  F00B         	goto	i2u471_40
  6482   001766                     i2u471_41:
  6483   001766  EFB7  F00B         	goto	i2l1028
  6484   00176A                     i2u471_40:
  6485   00176A                     
  6486                           ;MCAL_Layer/Interrupts/mcal_interrupt_manger.c: 29:         INT0_ISR();
  6487   00176A  ECAB  F018         	call	_INT0_ISR	;wreg free
  6488   00176E                     i2l1028:
  6489                           
  6490                           ;MCAL_Layer/Interrupts/mcal_interrupt_manger.c: 31:     if((1 == INTCON3bits.INT1IE) && 
      +                          (1 == INTCON3bits.INT1IF))
  6491   00176E  A6F0               	btfss	240,3,c	;volatile
  6492   001770  EFBC  F00B         	goto	i2u472_41
  6493   001774  EFBE  F00B         	goto	i2u472_40
  6494   001778                     i2u472_41:
  6495   001778  EFC7  F00B         	goto	i2l1030
  6496   00177C                     i2u472_40:
  6497   00177C  A0F0               	btfss	240,0,c	;volatile
  6498   00177E  EFC3  F00B         	goto	i2u473_41
  6499   001782  EFC5  F00B         	goto	i2u473_40
  6500   001786                     i2u473_41:
  6501   001786  EFC7  F00B         	goto	i2l1030
  6502   00178A                     i2u473_40:
  6503   00178A                     
  6504                           ;MCAL_Layer/Interrupts/mcal_interrupt_manger.c: 32:         INT1_ISR();
  6505   00178A  EC94  F018         	call	_INT1_ISR	;wreg free
  6506   00178E                     i2l1030:
  6507                           
  6508                           ;MCAL_Layer/Interrupts/mcal_interrupt_manger.c: 34:     if((1 == INTCON3bits.INT2IE) && 
      +                          (1 == INTCON3bits.INT2IF))
  6509   00178E  A8F0               	btfss	240,4,c	;volatile
  6510   001790  EFCC  F00B         	goto	i2u474_41
  6511   001794  EFCE  F00B         	goto	i2u474_40
  6512   001798                     i2u474_41:
  6513   001798  EFD7  F00B         	goto	i2l1032
  6514   00179C                     i2u474_40:
  6515   00179C  A2F0               	btfss	240,1,c	;volatile
  6516   00179E  EFD3  F00B         	goto	i2u475_41
  6517   0017A2  EFD5  F00B         	goto	i2u475_40
  6518   0017A6                     i2u475_41:
  6519   0017A6  EFD7  F00B         	goto	i2l1032
  6520   0017AA                     i2u475_40:
  6521   0017AA                     
  6522                           ;MCAL_Layer/Interrupts/mcal_interrupt_manger.c: 35:         INT2_ISR();
  6523   0017AA  EC7D  F018         	call	_INT2_ISR	;wreg free
  6524   0017AE                     i2l1032:
  6525                           
  6526                           ;MCAL_Layer/Interrupts/mcal_interrupt_manger.c: 37:     if((1 == INTCONbits.RBIE) && (1 
      +                          == INTCONbits.RBIF) && (PORTBbits.RB4 == HIGH) && (RB4_Flag == 1))
  6527   0017AE  A6F2               	btfss	242,3,c	;volatile
  6528   0017B0  EFDC  F00B         	goto	i2u476_41
  6529   0017B4  EFDE  F00B         	goto	i2u476_40
  6530   0017B8                     i2u476_41:
  6531   0017B8  EFF9  F00B         	goto	i2l1034
  6532   0017BC                     i2u476_40:
  6533   0017BC  A0F2               	btfss	242,0,c	;volatile
  6534   0017BE  EFE3  F00B         	goto	i2u477_41
  6535   0017C2  EFE5  F00B         	goto	i2u477_40
  6536   0017C6                     i2u477_41:
  6537   0017C6  EFF9  F00B         	goto	i2l1034
  6538   0017CA                     i2u477_40:
  6539   0017CA  A881               	btfss	129,4,c	;volatile
  6540   0017CC  EFEA  F00B         	goto	i2u478_41
  6541   0017D0  EFEC  F00B         	goto	i2u478_40
  6542   0017D4                     i2u478_41:
  6543   0017D4  EFF9  F00B         	goto	i2l1034
  6544   0017D8                     i2u478_40:
  6545   0017D8  0461               	decf	_RB4_Flag^0,w,c	;volatile
  6546   0017DA  A4D8               	btfss	status,2,c
  6547   0017DC  EFF2  F00B         	goto	i2u479_41
  6548   0017E0  EFF4  F00B         	goto	i2u479_40
  6549   0017E4                     i2u479_41:
  6550   0017E4  EFF9  F00B         	goto	i2l1034
  6551   0017E8                     i2u479_40:
  6552   0017E8                     
  6553                           ;MCAL_Layer/Interrupts/mcal_interrupt_manger.c: 38:     {;MCAL_Layer/Interrupts/mcal_int
      +                          errupt_manger.c: 39:         RB4_Flag = 0 ;
  6554   0017E8  0E00               	movlw	0
  6555   0017EA  6E61               	movwf	_RB4_Flag^0,c	;volatile
  6556   0017EC                     
  6557                           ;MCAL_Layer/Interrupts/mcal_interrupt_manger.c: 40:         RB4_ISR(0);
  6558   0017EC  0E00               	movlw	0
  6559   0017EE  EC15  F014         	call	_RB4_ISR
  6560   0017F2                     i2l1034:
  6561                           
  6562                           ;MCAL_Layer/Interrupts/mcal_interrupt_manger.c: 43:     if((1 == INTCONbits.RBIE) && (1 
      +                          == INTCONbits.RBIF) && (PORTBbits.RB4 == LOW) && (RB4_Flag == 0))
  6563   0017F2  A6F2               	btfss	242,3,c	;volatile
  6564   0017F4  EFFE  F00B         	goto	i2u480_41
  6565   0017F8  EF00  F00C         	goto	i2u480_40
  6566   0017FC                     i2u480_41:
  6567   0017FC  EF1B  F00C         	goto	i2l1036
  6568   001800                     i2u480_40:
  6569   001800  A0F2               	btfss	242,0,c	;volatile
  6570   001802  EF05  F00C         	goto	i2u481_41
  6571   001806  EF07  F00C         	goto	i2u481_40
  6572   00180A                     i2u481_41:
  6573   00180A  EF1B  F00C         	goto	i2l1036
  6574   00180E                     i2u481_40:
  6575   00180E  B881               	btfsc	129,4,c	;volatile
  6576   001810  EF0C  F00C         	goto	i2u482_41
  6577   001814  EF0E  F00C         	goto	i2u482_40
  6578   001818                     i2u482_41:
  6579   001818  EF1B  F00C         	goto	i2l1036
  6580   00181C                     i2u482_40:
  6581   00181C  5061               	movf	_RB4_Flag^0,w,c	;volatile
  6582   00181E  A4D8               	btfss	status,2,c
  6583   001820  EF14  F00C         	goto	i2u483_41
  6584   001824  EF16  F00C         	goto	i2u483_40
  6585   001828                     i2u483_41:
  6586   001828  EF1B  F00C         	goto	i2l1036
  6587   00182C                     i2u483_40:
  6588   00182C                     
  6589                           ;MCAL_Layer/Interrupts/mcal_interrupt_manger.c: 44:     {;MCAL_Layer/Interrupts/mcal_int
      +                          errupt_manger.c: 45:         RB4_Flag = 1 ;
  6590   00182C  0E01               	movlw	1
  6591   00182E  6E61               	movwf	_RB4_Flag^0,c	;volatile
  6592   001830                     
  6593                           ;MCAL_Layer/Interrupts/mcal_interrupt_manger.c: 46:         RB4_ISR(1);
  6594   001830  0E01               	movlw	1
  6595   001832  EC15  F014         	call	_RB4_ISR
  6596   001836                     i2l1036:
  6597                           
  6598                           ;MCAL_Layer/Interrupts/mcal_interrupt_manger.c: 49:     if((1 == INTCONbits.RBIE) && (1 
      +                          == INTCONbits.RBIF) && (PORTBbits.RB5 == HIGH) && (RB5_Flag == 1))
  6599   001836  A6F2               	btfss	242,3,c	;volatile
  6600   001838  EF20  F00C         	goto	i2u484_41
  6601   00183C  EF22  F00C         	goto	i2u484_40
  6602   001840                     i2u484_41:
  6603   001840  EF3D  F00C         	goto	i2l1038
  6604   001844                     i2u484_40:
  6605   001844  A0F2               	btfss	242,0,c	;volatile
  6606   001846  EF27  F00C         	goto	i2u485_41
  6607   00184A  EF29  F00C         	goto	i2u485_40
  6608   00184E                     i2u485_41:
  6609   00184E  EF3D  F00C         	goto	i2l1038
  6610   001852                     i2u485_40:
  6611   001852  AA81               	btfss	129,5,c	;volatile
  6612   001854  EF2E  F00C         	goto	i2u486_41
  6613   001858  EF30  F00C         	goto	i2u486_40
  6614   00185C                     i2u486_41:
  6615   00185C  EF3D  F00C         	goto	i2l1038
  6616   001860                     i2u486_40:
  6617   001860  0460               	decf	_RB5_Flag^0,w,c	;volatile
  6618   001862  A4D8               	btfss	status,2,c
  6619   001864  EF36  F00C         	goto	i2u487_41
  6620   001868  EF38  F00C         	goto	i2u487_40
  6621   00186C                     i2u487_41:
  6622   00186C  EF3D  F00C         	goto	i2l1038
  6623   001870                     i2u487_40:
  6624   001870                     
  6625                           ;MCAL_Layer/Interrupts/mcal_interrupt_manger.c: 50:     {;MCAL_Layer/Interrupts/mcal_int
      +                          errupt_manger.c: 51:         RB5_Flag = 0 ;
  6626   001870  0E00               	movlw	0
  6627   001872  6E60               	movwf	_RB5_Flag^0,c	;volatile
  6628   001874                     
  6629                           ;MCAL_Layer/Interrupts/mcal_interrupt_manger.c: 52:         RB5_ISR(0);
  6630   001874  0E00               	movlw	0
  6631   001876  ECD6  F013         	call	_RB5_ISR
  6632   00187A                     i2l1038:
  6633                           
  6634                           ;MCAL_Layer/Interrupts/mcal_interrupt_manger.c: 55:     if((1 == INTCONbits.RBIE) && (1 
      +                          == INTCONbits.RBIF) && (PORTBbits.RB5 == LOW) && (RB5_Flag == 0))
  6635   00187A  A6F2               	btfss	242,3,c	;volatile
  6636   00187C  EF42  F00C         	goto	i2u488_41
  6637   001880  EF44  F00C         	goto	i2u488_40
  6638   001884                     i2u488_41:
  6639   001884  EF5F  F00C         	goto	i2l1040
  6640   001888                     i2u488_40:
  6641   001888  A0F2               	btfss	242,0,c	;volatile
  6642   00188A  EF49  F00C         	goto	i2u489_41
  6643   00188E  EF4B  F00C         	goto	i2u489_40
  6644   001892                     i2u489_41:
  6645   001892  EF5F  F00C         	goto	i2l1040
  6646   001896                     i2u489_40:
  6647   001896  BA81               	btfsc	129,5,c	;volatile
  6648   001898  EF50  F00C         	goto	i2u490_41
  6649   00189C  EF52  F00C         	goto	i2u490_40
  6650   0018A0                     i2u490_41:
  6651   0018A0  EF5F  F00C         	goto	i2l1040
  6652   0018A4                     i2u490_40:
  6653   0018A4  5060               	movf	_RB5_Flag^0,w,c	;volatile
  6654   0018A6  A4D8               	btfss	status,2,c
  6655   0018A8  EF58  F00C         	goto	i2u491_41
  6656   0018AC  EF5A  F00C         	goto	i2u491_40
  6657   0018B0                     i2u491_41:
  6658   0018B0  EF5F  F00C         	goto	i2l1040
  6659   0018B4                     i2u491_40:
  6660   0018B4                     
  6661                           ;MCAL_Layer/Interrupts/mcal_interrupt_manger.c: 56:     {;MCAL_Layer/Interrupts/mcal_int
      +                          errupt_manger.c: 57:         RB5_Flag = 1 ;
  6662   0018B4  0E01               	movlw	1
  6663   0018B6  6E60               	movwf	_RB5_Flag^0,c	;volatile
  6664   0018B8                     
  6665                           ;MCAL_Layer/Interrupts/mcal_interrupt_manger.c: 58:         RB5_ISR(1);
  6666   0018B8  0E01               	movlw	1
  6667   0018BA  ECD6  F013         	call	_RB5_ISR
  6668   0018BE                     i2l1040:
  6669                           
  6670                           ;MCAL_Layer/Interrupts/mcal_interrupt_manger.c: 61:     if((1 == INTCONbits.RBIE) && (1 
      +                          == INTCONbits.RBIF) && (PORTBbits.RB6 == HIGH) && (RB6_Flag == 1))
  6671   0018BE  A6F2               	btfss	242,3,c	;volatile
  6672   0018C0  EF64  F00C         	goto	i2u492_41
  6673   0018C4  EF66  F00C         	goto	i2u492_40
  6674   0018C8                     i2u492_41:
  6675   0018C8  EF81  F00C         	goto	i2l1042
  6676   0018CC                     i2u492_40:
  6677   0018CC  A0F2               	btfss	242,0,c	;volatile
  6678   0018CE  EF6B  F00C         	goto	i2u493_41
  6679   0018D2  EF6D  F00C         	goto	i2u493_40
  6680   0018D6                     i2u493_41:
  6681   0018D6  EF81  F00C         	goto	i2l1042
  6682   0018DA                     i2u493_40:
  6683   0018DA  AC81               	btfss	129,6,c	;volatile
  6684   0018DC  EF72  F00C         	goto	i2u494_41
  6685   0018E0  EF74  F00C         	goto	i2u494_40
  6686   0018E4                     i2u494_41:
  6687   0018E4  EF81  F00C         	goto	i2l1042
  6688   0018E8                     i2u494_40:
  6689   0018E8  045F               	decf	_RB6_Flag^0,w,c	;volatile
  6690   0018EA  A4D8               	btfss	status,2,c
  6691   0018EC  EF7A  F00C         	goto	i2u495_41
  6692   0018F0  EF7C  F00C         	goto	i2u495_40
  6693   0018F4                     i2u495_41:
  6694   0018F4  EF81  F00C         	goto	i2l1042
  6695   0018F8                     i2u495_40:
  6696   0018F8                     
  6697                           ;MCAL_Layer/Interrupts/mcal_interrupt_manger.c: 62:     {;MCAL_Layer/Interrupts/mcal_int
      +                          errupt_manger.c: 63:         RB6_Flag = 0 ;
  6698   0018F8  0E00               	movlw	0
  6699   0018FA  6E5F               	movwf	_RB6_Flag^0,c	;volatile
  6700   0018FC                     
  6701                           ;MCAL_Layer/Interrupts/mcal_interrupt_manger.c: 64:         RB6_ISR(0);
  6702   0018FC  0E00               	movlw	0
  6703   0018FE  EC97  F013         	call	_RB6_ISR
  6704   001902                     i2l1042:
  6705                           
  6706                           ;MCAL_Layer/Interrupts/mcal_interrupt_manger.c: 67:     if((1 == INTCONbits.RBIE) && (1 
      +                          == INTCONbits.RBIF) && (PORTBbits.RB6 == LOW) && (RB6_Flag == 0))
  6707   001902  A6F2               	btfss	242,3,c	;volatile
  6708   001904  EF86  F00C         	goto	i2u496_41
  6709   001908  EF88  F00C         	goto	i2u496_40
  6710   00190C                     i2u496_41:
  6711   00190C  EFA3  F00C         	goto	i2l1044
  6712   001910                     i2u496_40:
  6713   001910  A0F2               	btfss	242,0,c	;volatile
  6714   001912  EF8D  F00C         	goto	i2u497_41
  6715   001916  EF8F  F00C         	goto	i2u497_40
  6716   00191A                     i2u497_41:
  6717   00191A  EFA3  F00C         	goto	i2l1044
  6718   00191E                     i2u497_40:
  6719   00191E  BC81               	btfsc	129,6,c	;volatile
  6720   001920  EF94  F00C         	goto	i2u498_41
  6721   001924  EF96  F00C         	goto	i2u498_40
  6722   001928                     i2u498_41:
  6723   001928  EFA3  F00C         	goto	i2l1044
  6724   00192C                     i2u498_40:
  6725   00192C  505F               	movf	_RB6_Flag^0,w,c	;volatile
  6726   00192E  A4D8               	btfss	status,2,c
  6727   001930  EF9C  F00C         	goto	i2u499_41
  6728   001934  EF9E  F00C         	goto	i2u499_40
  6729   001938                     i2u499_41:
  6730   001938  EFA3  F00C         	goto	i2l1044
  6731   00193C                     i2u499_40:
  6732   00193C                     
  6733                           ;MCAL_Layer/Interrupts/mcal_interrupt_manger.c: 68:     {;MCAL_Layer/Interrupts/mcal_int
      +                          errupt_manger.c: 69:         RB6_Flag = 1 ;
  6734   00193C  0E01               	movlw	1
  6735   00193E  6E5F               	movwf	_RB6_Flag^0,c	;volatile
  6736   001940                     
  6737                           ;MCAL_Layer/Interrupts/mcal_interrupt_manger.c: 70:         RB6_ISR(1);
  6738   001940  0E01               	movlw	1
  6739   001942  EC97  F013         	call	_RB6_ISR
  6740   001946                     i2l1044:
  6741                           
  6742                           ;MCAL_Layer/Interrupts/mcal_interrupt_manger.c: 73:     if((1 == INTCONbits.RBIE) && (1 
      +                          == INTCONbits.RBIF) && (PORTBbits.RB7 == HIGH) && (RB7_Flag == 1))
  6743   001946  A6F2               	btfss	242,3,c	;volatile
  6744   001948  EFA8  F00C         	goto	i2u500_41
  6745   00194C  EFAA  F00C         	goto	i2u500_40
  6746   001950                     i2u500_41:
  6747   001950  EFC5  F00C         	goto	i2l1046
  6748   001954                     i2u500_40:
  6749   001954  A0F2               	btfss	242,0,c	;volatile
  6750   001956  EFAF  F00C         	goto	i2u501_41
  6751   00195A  EFB1  F00C         	goto	i2u501_40
  6752   00195E                     i2u501_41:
  6753   00195E  EFC5  F00C         	goto	i2l1046
  6754   001962                     i2u501_40:
  6755   001962  AE81               	btfss	129,7,c	;volatile
  6756   001964  EFB6  F00C         	goto	i2u502_41
  6757   001968  EFB8  F00C         	goto	i2u502_40
  6758   00196C                     i2u502_41:
  6759   00196C  EFC5  F00C         	goto	i2l1046
  6760   001970                     i2u502_40:
  6761   001970  045E               	decf	_RB7_Flag^0,w,c	;volatile
  6762   001972  A4D8               	btfss	status,2,c
  6763   001974  EFBE  F00C         	goto	i2u503_41
  6764   001978  EFC0  F00C         	goto	i2u503_40
  6765   00197C                     i2u503_41:
  6766   00197C  EFC5  F00C         	goto	i2l1046
  6767   001980                     i2u503_40:
  6768   001980                     
  6769                           ;MCAL_Layer/Interrupts/mcal_interrupt_manger.c: 74:     {;MCAL_Layer/Interrupts/mcal_int
      +                          errupt_manger.c: 75:         RB7_Flag = 0 ;
  6770   001980  0E00               	movlw	0
  6771   001982  6E5E               	movwf	_RB7_Flag^0,c	;volatile
  6772   001984                     
  6773                           ;MCAL_Layer/Interrupts/mcal_interrupt_manger.c: 76:         RB7_ISR(0);
  6774   001984  0E00               	movlw	0
  6775   001986  EC58  F013         	call	_RB7_ISR
  6776   00198A                     i2l1046:
  6777                           
  6778                           ;MCAL_Layer/Interrupts/mcal_interrupt_manger.c: 79:     if((1 == INTCONbits.RBIE) && (1 
      +                          == INTCONbits.RBIF) && (PORTBbits.RB7 == LOW) && (RB7_Flag == 0))
  6779   00198A  A6F2               	btfss	242,3,c	;volatile
  6780   00198C  EFCA  F00C         	goto	i2u504_41
  6781   001990  EFCC  F00C         	goto	i2u504_40
  6782   001994                     i2u504_41:
  6783   001994  EFE7  F00C         	goto	i2l1048
  6784   001998                     i2u504_40:
  6785   001998  A0F2               	btfss	242,0,c	;volatile
  6786   00199A  EFD1  F00C         	goto	i2u505_41
  6787   00199E  EFD3  F00C         	goto	i2u505_40
  6788   0019A2                     i2u505_41:
  6789   0019A2  EFE7  F00C         	goto	i2l1048
  6790   0019A6                     i2u505_40:
  6791   0019A6  BE81               	btfsc	129,7,c	;volatile
  6792   0019A8  EFD8  F00C         	goto	i2u506_41
  6793   0019AC  EFDA  F00C         	goto	i2u506_40
  6794   0019B0                     i2u506_41:
  6795   0019B0  EFE7  F00C         	goto	i2l1048
  6796   0019B4                     i2u506_40:
  6797   0019B4  505E               	movf	_RB7_Flag^0,w,c	;volatile
  6798   0019B6  A4D8               	btfss	status,2,c
  6799   0019B8  EFE0  F00C         	goto	i2u507_41
  6800   0019BC  EFE2  F00C         	goto	i2u507_40
  6801   0019C0                     i2u507_41:
  6802   0019C0  EFE7  F00C         	goto	i2l1048
  6803   0019C4                     i2u507_40:
  6804   0019C4                     
  6805                           ;MCAL_Layer/Interrupts/mcal_interrupt_manger.c: 80:     {;MCAL_Layer/Interrupts/mcal_int
      +                          errupt_manger.c: 81:         RB7_Flag = 1 ;
  6806   0019C4  0E01               	movlw	1
  6807   0019C6  6E5E               	movwf	_RB7_Flag^0,c	;volatile
  6808   0019C8                     
  6809                           ;MCAL_Layer/Interrupts/mcal_interrupt_manger.c: 82:         RB7_ISR(1);
  6810   0019C8  0E01               	movlw	1
  6811   0019CA  EC58  F013         	call	_RB7_ISR
  6812   0019CE                     i2l1048:
  6813                           
  6814                           ;MCAL_Layer/Interrupts/mcal_interrupt_manger.c: 85:     if((1 == PIE1bits.ADIE) && (1 ==
      +                           PIR1bits.ADIF))
  6815   0019CE  AC9D               	btfss	157,6,c	;volatile
  6816   0019D0  EFEC  F00C         	goto	i2u508_41
  6817   0019D4  EFEE  F00C         	goto	i2u508_40
  6818   0019D8                     i2u508_41:
  6819   0019D8  EFF7  F00C         	goto	i2l1051
  6820   0019DC                     i2u508_40:
  6821   0019DC  AC9E               	btfss	158,6,c	;volatile
  6822   0019DE  EFF3  F00C         	goto	i2u509_41
  6823   0019E2  EFF5  F00C         	goto	i2u509_40
  6824   0019E6                     i2u509_41:
  6825   0019E6  EFF7  F00C         	goto	i2l1051
  6826   0019EA                     i2u509_40:
  6827   0019EA                     
  6828                           ;MCAL_Layer/Interrupts/mcal_interrupt_manger.c: 86:     {;MCAL_Layer/Interrupts/mcal_int
      +                          errupt_manger.c: 87:         ADC_ISR();
  6829   0019EA  EC12  F019         	call	_ADC_ISR	;wreg free
  6830   0019EE                     i2l1051:
  6831   0019EE  C011  FFF4         	movff	??_INTERRUPT_MANGER_+5,prodh
  6832   0019F2  C010  FFF3         	movff	??_INTERRUPT_MANGER_+4,prodl
  6833   0019F6  C00F  FFDA         	movff	??_INTERRUPT_MANGER_+3,fsr2h
  6834   0019FA  C00E  FFD9         	movff	??_INTERRUPT_MANGER_+2,fsr2l
  6835   0019FE  C00D  FFFB         	movff	??_INTERRUPT_MANGER_+1,pclatu
  6836   001A02  C00C  FFFA         	movff	??_INTERRUPT_MANGER_,pclath
  6837   001A06  926E               	bcf	int$flags,1,c	;clear compiler interrupt flag (level 2)
  6838   001A08  0011               	retfie		f
  6839   001A0A                     __end_of_INTERRUPT_MANGER_:
  6840                           	callstack 0
  6841                           
  6842 ;; *************** function _RB7_ISR *****************
  6843 ;; Defined at:
  6844 ;;		line 646 in file "MCAL_Layer/Interrupts/mcal_external_interrupt.c"
  6845 ;; Parameters:    Size  Location     Type
  6846 ;;  RB7_source      1    wreg     unsigned char 
  6847 ;; Auto vars:     Size  Location     Type
  6848 ;;  RB7_source      1   10[COMRAM] unsigned char 
  6849 ;; Return value:  Size  Location     Type
  6850 ;;                  1    wreg      void 
  6851 ;; Registers used:
  6852 ;;		wreg, fsr2l, fsr2h, status,2, status,0, pcl, pclath, pclatu, tosl, prodl, prodh, cstack
  6853 ;; Tracked objects:
  6854 ;;		On entry : 0/0
  6855 ;;		On exit  : 0/0
  6856 ;;		Unchanged: 0/0
  6857 ;; Data sizes:     COMRAM   BANK0   BANK1   BANK2   BANK3   BANK4   BANK5   BANK6   BANK7   BANK8   BANK9  BANK10  BANK1
      +1  BANK12  BANK13  BANK14  BANK15
  6858 ;;      Params:         0       0       0       0       0       0       0       0       0       0       0       0       
      +0       0       0       0       0
  6859 ;;      Locals:         1       0       0       0       0       0       0       0       0       0       0       0       
      +0       0       0       0       0
  6860 ;;      Temps:          0       0       0       0       0       0       0       0       0       0       0       0       
      +0       0       0       0       0
  6861 ;;      Totals:         1       0       0       0       0       0       0       0       0       0       0       0       
      +0       0       0       0       0
  6862 ;;Total ram usage:        1 bytes
  6863 ;; Hardware stack levels used: 1
  6864 ;; Hardware stack levels required when called: 3
  6865 ;; This function calls:
  6866 ;;		NULL
  6867 ;;		_RB4_HIGH_Int_APP_ISR
  6868 ;;		_RB4_LOW_Int_APP_ISR
  6869 ;;		_RB5_HIGH_Int_APP_ISR
  6870 ;;		_RB5_LOW_Int_APP_ISR
  6871 ;;		_RB6_HIGH_Int_APP_ISR
  6872 ;;		_RB6_LOW_Int_APP_ISR
  6873 ;;		_RB7_HIGH_Int_APP_ISR
  6874 ;;		_RB7_LOW_Int_APP_ISR
  6875 ;; This function is called by:
  6876 ;;		_INTERRUPT_MANGER_
  6877 ;; This function uses a non-reentrant model
  6878 ;;
  6879                           
  6880                           	psect	text38
  6881   0026B0                     __ptext38:
  6882                           	callstack 0
  6883   0026B0                     _RB7_ISR:
  6884                           	callstack 20
  6885                           
  6886                           ;incstack = 0
  6887                           ;RB7_ISR@RB7_source stored from wreg
  6888   0026B0  6E0B               	movwf	RB7_ISR@RB7_source^0,c
  6889   0026B2                     
  6890                           ;MCAL_Layer/Interrupts/mcal_external_interrupt.c: 646: void RB7_ISR(uint8 RB7_source);MC
      +                          AL_Layer/Interrupts/mcal_external_interrupt.c: 647: {;MCAL_Layer/Interrupts/mcal_externa
      +                          l_interrupt.c: 648:     (INTCONbits.RBIF = 0);
  6891   0026B2  90F2               	bcf	242,0,c	;volatile
  6892   0026B4                     
  6893                           ;MCAL_Layer/Interrupts/mcal_external_interrupt.c: 652:     if(0 == RB7_source)
  6894   0026B4  500B               	movf	RB7_ISR@RB7_source^0,w,c
  6895   0026B6  A4D8               	btfss	status,2,c
  6896   0026B8  EF60  F013         	goto	i2u410_41
  6897   0026BC  EF62  F013         	goto	i2u410_40
  6898   0026C0                     i2u410_41:
  6899   0026C0  EF79  F013         	goto	i2l5061
  6900   0026C4                     i2u410_40:
  6901   0026C4                     
  6902                           ;MCAL_Layer/Interrupts/mcal_external_interrupt.c: 653:     {;MCAL_Layer/Interrupts/mcal_
      +                          external_interrupt.c: 654:         if(Interrupt_handler_RB7_HIGH)
  6903   0026C4  503F               	movf	_Interrupt_handler_RB7_HIGH^0,w,c
  6904   0026C6  1040               	iorwf	(_Interrupt_handler_RB7_HIGH+1)^0,w,c
  6905   0026C8  B4D8               	btfsc	status,2,c
  6906   0026CA  EF69  F013         	goto	i2u411_41
  6907   0026CE  EF6B  F013         	goto	i2u411_40
  6908   0026D2                     i2u411_41:
  6909   0026D2  EF96  F013         	goto	i2l936
  6910   0026D6                     i2u411_40:
  6911   0026D6                     
  6912                           ;MCAL_Layer/Interrupts/mcal_external_interrupt.c: 655:             Interrupt_handler_RB7
      +                          _HIGH();
  6913   0026D6  D802               	call	i2u412_48
  6914   0026D8  EF77  F013         	goto	i2u412_49
  6915   0026DC                     i2u412_48:
  6916   0026DC  0005               	push	
  6917   0026DE  6EFA               	movwf	pclath,c
  6918   0026E0  503F               	movf	_Interrupt_handler_RB7_HIGH^0,w,c
  6919   0026E2  6EFD               	movwf	tosl,c
  6920   0026E4  5040               	movf	(_Interrupt_handler_RB7_HIGH+1)^0,w,c
  6921   0026E6  6EFE               	movwf	tosh,c
  6922   0026E8  6AFF               	clrf	tosu,c
  6923   0026EA  50FA               	movf	pclath,w,c
  6924   0026EC  0012               	return		;indir
  6925   0026EE                     i2u412_49:
  6926   0026EE  EF96  F013         	goto	i2l936
  6927   0026F2                     i2l5061:
  6928   0026F2  040B               	decf	RB7_ISR@RB7_source^0,w,c
  6929   0026F4  A4D8               	btfss	status,2,c
  6930   0026F6  EF7F  F013         	goto	i2u413_41
  6931   0026FA  EF81  F013         	goto	i2u413_40
  6932   0026FE                     i2u413_41:
  6933   0026FE  EF96  F013         	goto	i2l936
  6934   002702                     i2u413_40:
  6935   002702                     
  6936                           ;MCAL_Layer/Interrupts/mcal_external_interrupt.c: 659:     {;MCAL_Layer/Interrupts/mcal_
      +                          external_interrupt.c: 660:         if(Interrupt_handler_RB7_LOW)
  6937   002702  5037               	movf	_Interrupt_handler_RB7_LOW^0,w,c
  6938   002704  1038               	iorwf	(_Interrupt_handler_RB7_LOW+1)^0,w,c
  6939   002706  B4D8               	btfsc	status,2,c
  6940   002708  EF88  F013         	goto	i2u414_41
  6941   00270C  EF8A  F013         	goto	i2u414_40
  6942   002710                     i2u414_41:
  6943   002710  EF96  F013         	goto	i2l936
  6944   002714                     i2u414_40:
  6945   002714                     
  6946                           ;MCAL_Layer/Interrupts/mcal_external_interrupt.c: 661:             Interrupt_handler_RB7
      +                          _LOW();
  6947   002714  D802               	call	i2u415_48
  6948   002716  EF96  F013         	goto	i2u415_49
  6949   00271A                     i2u415_48:
  6950   00271A  0005               	push	
  6951   00271C  6EFA               	movwf	pclath,c
  6952   00271E  5037               	movf	_Interrupt_handler_RB7_LOW^0,w,c
  6953   002720  6EFD               	movwf	tosl,c
  6954   002722  5038               	movf	(_Interrupt_handler_RB7_LOW+1)^0,w,c
  6955   002724  6EFE               	movwf	tosh,c
  6956   002726  6AFF               	clrf	tosu,c
  6957   002728  50FA               	movf	pclath,w,c
  6958   00272A  0012               	return		;indir
  6959   00272C                     i2u415_49:
  6960   00272C                     i2l936:
  6961   00272C  0012               	return		;funcret
  6962   00272E                     __end_of_RB7_ISR:
  6963                           	callstack 0
  6964                           
  6965 ;; *************** function _RB6_ISR *****************
  6966 ;; Defined at:
  6967 ;;		line 623 in file "MCAL_Layer/Interrupts/mcal_external_interrupt.c"
  6968 ;; Parameters:    Size  Location     Type
  6969 ;;  RB6_source      1    wreg     unsigned char 
  6970 ;; Auto vars:     Size  Location     Type
  6971 ;;  RB6_source      1   10[COMRAM] unsigned char 
  6972 ;; Return value:  Size  Location     Type
  6973 ;;                  1    wreg      void 
  6974 ;; Registers used:
  6975 ;;		wreg, fsr2l, fsr2h, status,2, status,0, pcl, pclath, pclatu, tosl, prodl, prodh, cstack
  6976 ;; Tracked objects:
  6977 ;;		On entry : 0/0
  6978 ;;		On exit  : 0/0
  6979 ;;		Unchanged: 0/0
  6980 ;; Data sizes:     COMRAM   BANK0   BANK1   BANK2   BANK3   BANK4   BANK5   BANK6   BANK7   BANK8   BANK9  BANK10  BANK1
      +1  BANK12  BANK13  BANK14  BANK15
  6981 ;;      Params:         0       0       0       0       0       0       0       0       0       0       0       0       
      +0       0       0       0       0
  6982 ;;      Locals:         1       0       0       0       0       0       0       0       0       0       0       0       
      +0       0       0       0       0
  6983 ;;      Temps:          0       0       0       0       0       0       0       0       0       0       0       0       
      +0       0       0       0       0
  6984 ;;      Totals:         1       0       0       0       0       0       0       0       0       0       0       0       
      +0       0       0       0       0
  6985 ;;Total ram usage:        1 bytes
  6986 ;; Hardware stack levels used: 1
  6987 ;; Hardware stack levels required when called: 3
  6988 ;; This function calls:
  6989 ;;		NULL
  6990 ;;		_RB4_HIGH_Int_APP_ISR
  6991 ;;		_RB4_LOW_Int_APP_ISR
  6992 ;;		_RB5_HIGH_Int_APP_ISR
  6993 ;;		_RB5_LOW_Int_APP_ISR
  6994 ;;		_RB6_HIGH_Int_APP_ISR
  6995 ;;		_RB6_LOW_Int_APP_ISR
  6996 ;;		_RB7_HIGH_Int_APP_ISR
  6997 ;;		_RB7_LOW_Int_APP_ISR
  6998 ;; This function is called by:
  6999 ;;		_INTERRUPT_MANGER_
  7000 ;; This function uses a non-reentrant model
  7001 ;;
  7002                           
  7003                           	psect	text39
  7004   00272E                     __ptext39:
  7005                           	callstack 0
  7006   00272E                     _RB6_ISR:
  7007                           	callstack 20
  7008                           
  7009                           ;incstack = 0
  7010                           ;RB6_ISR@RB6_source stored from wreg
  7011   00272E  6E0B               	movwf	RB6_ISR@RB6_source^0,c
  7012   002730                     
  7013                           ;MCAL_Layer/Interrupts/mcal_external_interrupt.c: 623: void RB6_ISR(uint8 RB6_source);MC
      +                          AL_Layer/Interrupts/mcal_external_interrupt.c: 624: {;MCAL_Layer/Interrupts/mcal_externa
      +                          l_interrupt.c: 625:     (INTCONbits.RBIF = 0);
  7014   002730  90F2               	bcf	242,0,c	;volatile
  7015   002732                     
  7016                           ;MCAL_Layer/Interrupts/mcal_external_interrupt.c: 629:     if(0 == RB6_source)
  7017   002732  500B               	movf	RB6_ISR@RB6_source^0,w,c
  7018   002734  A4D8               	btfss	status,2,c
  7019   002736  EF9F  F013         	goto	i2u404_41
  7020   00273A  EFA1  F013         	goto	i2u404_40
  7021   00273E                     i2u404_41:
  7022   00273E  EFB8  F013         	goto	i2l5047
  7023   002742                     i2u404_40:
  7024   002742                     
  7025                           ;MCAL_Layer/Interrupts/mcal_external_interrupt.c: 630:     {;MCAL_Layer/Interrupts/mcal_
      +                          external_interrupt.c: 631:         if(Interrupt_handler_RB6_HIGH)
  7026   002742  5041               	movf	_Interrupt_handler_RB6_HIGH^0,w,c
  7027   002744  1042               	iorwf	(_Interrupt_handler_RB6_HIGH+1)^0,w,c
  7028   002746  B4D8               	btfsc	status,2,c
  7029   002748  EFA8  F013         	goto	i2u405_41
  7030   00274C  EFAA  F013         	goto	i2u405_40
  7031   002750                     i2u405_41:
  7032   002750  EFD5  F013         	goto	i2l925
  7033   002754                     i2u405_40:
  7034   002754                     
  7035                           ;MCAL_Layer/Interrupts/mcal_external_interrupt.c: 632:             Interrupt_handler_RB6
      +                          _HIGH();
  7036   002754  D802               	call	i2u406_48
  7037   002756  EFB6  F013         	goto	i2u406_49
  7038   00275A                     i2u406_48:
  7039   00275A  0005               	push	
  7040   00275C  6EFA               	movwf	pclath,c
  7041   00275E  5041               	movf	_Interrupt_handler_RB6_HIGH^0,w,c
  7042   002760  6EFD               	movwf	tosl,c
  7043   002762  5042               	movf	(_Interrupt_handler_RB6_HIGH+1)^0,w,c
  7044   002764  6EFE               	movwf	tosh,c
  7045   002766  6AFF               	clrf	tosu,c
  7046   002768  50FA               	movf	pclath,w,c
  7047   00276A  0012               	return		;indir
  7048   00276C                     i2u406_49:
  7049   00276C  EFD5  F013         	goto	i2l925
  7050   002770                     i2l5047:
  7051   002770  040B               	decf	RB6_ISR@RB6_source^0,w,c
  7052   002772  A4D8               	btfss	status,2,c
  7053   002774  EFBE  F013         	goto	i2u407_41
  7054   002778  EFC0  F013         	goto	i2u407_40
  7055   00277C                     i2u407_41:
  7056   00277C  EFD5  F013         	goto	i2l925
  7057   002780                     i2u407_40:
  7058   002780                     
  7059                           ;MCAL_Layer/Interrupts/mcal_external_interrupt.c: 636:     {;MCAL_Layer/Interrupts/mcal_
      +                          external_interrupt.c: 637:         if(Interrupt_handler_RB6_LOW)
  7060   002780  5039               	movf	_Interrupt_handler_RB6_LOW^0,w,c
  7061   002782  103A               	iorwf	(_Interrupt_handler_RB6_LOW+1)^0,w,c
  7062   002784  B4D8               	btfsc	status,2,c
  7063   002786  EFC7  F013         	goto	i2u408_41
  7064   00278A  EFC9  F013         	goto	i2u408_40
  7065   00278E                     i2u408_41:
  7066   00278E  EFD5  F013         	goto	i2l925
  7067   002792                     i2u408_40:
  7068   002792                     
  7069                           ;MCAL_Layer/Interrupts/mcal_external_interrupt.c: 638:             Interrupt_handler_RB6
      +                          _LOW();
  7070   002792  D802               	call	i2u409_48
  7071   002794  EFD5  F013         	goto	i2u409_49
  7072   002798                     i2u409_48:
  7073   002798  0005               	push	
  7074   00279A  6EFA               	movwf	pclath,c
  7075   00279C  5039               	movf	_Interrupt_handler_RB6_LOW^0,w,c
  7076   00279E  6EFD               	movwf	tosl,c
  7077   0027A0  503A               	movf	(_Interrupt_handler_RB6_LOW+1)^0,w,c
  7078   0027A2  6EFE               	movwf	tosh,c
  7079   0027A4  6AFF               	clrf	tosu,c
  7080   0027A6  50FA               	movf	pclath,w,c
  7081   0027A8  0012               	return		;indir
  7082   0027AA                     i2u409_49:
  7083   0027AA                     i2l925:
  7084   0027AA  0012               	return		;funcret
  7085   0027AC                     __end_of_RB6_ISR:
  7086                           	callstack 0
  7087                           
  7088 ;; *************** function _RB5_ISR *****************
  7089 ;; Defined at:
  7090 ;;		line 600 in file "MCAL_Layer/Interrupts/mcal_external_interrupt.c"
  7091 ;; Parameters:    Size  Location     Type
  7092 ;;  RB5_source      1    wreg     unsigned char 
  7093 ;; Auto vars:     Size  Location     Type
  7094 ;;  RB5_source      1   10[COMRAM] unsigned char 
  7095 ;; Return value:  Size  Location     Type
  7096 ;;                  1    wreg      void 
  7097 ;; Registers used:
  7098 ;;		wreg, fsr2l, fsr2h, status,2, status,0, pcl, pclath, pclatu, tosl, prodl, prodh, cstack
  7099 ;; Tracked objects:
  7100 ;;		On entry : 0/0
  7101 ;;		On exit  : 0/0
  7102 ;;		Unchanged: 0/0
  7103 ;; Data sizes:     COMRAM   BANK0   BANK1   BANK2   BANK3   BANK4   BANK5   BANK6   BANK7   BANK8   BANK9  BANK10  BANK1
      +1  BANK12  BANK13  BANK14  BANK15
  7104 ;;      Params:         0       0       0       0       0       0       0       0       0       0       0       0       
      +0       0       0       0       0
  7105 ;;      Locals:         1       0       0       0       0       0       0       0       0       0       0       0       
      +0       0       0       0       0
  7106 ;;      Temps:          0       0       0       0       0       0       0       0       0       0       0       0       
      +0       0       0       0       0
  7107 ;;      Totals:         1       0       0       0       0       0       0       0       0       0       0       0       
      +0       0       0       0       0
  7108 ;;Total ram usage:        1 bytes
  7109 ;; Hardware stack levels used: 1
  7110 ;; Hardware stack levels required when called: 3
  7111 ;; This function calls:
  7112 ;;		NULL
  7113 ;;		_RB4_HIGH_Int_APP_ISR
  7114 ;;		_RB4_LOW_Int_APP_ISR
  7115 ;;		_RB5_HIGH_Int_APP_ISR
  7116 ;;		_RB5_LOW_Int_APP_ISR
  7117 ;;		_RB6_HIGH_Int_APP_ISR
  7118 ;;		_RB6_LOW_Int_APP_ISR
  7119 ;;		_RB7_HIGH_Int_APP_ISR
  7120 ;;		_RB7_LOW_Int_APP_ISR
  7121 ;; This function is called by:
  7122 ;;		_INTERRUPT_MANGER_
  7123 ;; This function uses a non-reentrant model
  7124 ;;
  7125                           
  7126                           	psect	text40
  7127   0027AC                     __ptext40:
  7128                           	callstack 0
  7129   0027AC                     _RB5_ISR:
  7130                           	callstack 20
  7131                           
  7132                           ;incstack = 0
  7133                           ;RB5_ISR@RB5_source stored from wreg
  7134   0027AC  6E0B               	movwf	RB5_ISR@RB5_source^0,c
  7135   0027AE                     
  7136                           ;MCAL_Layer/Interrupts/mcal_external_interrupt.c: 600: void RB5_ISR(uint8 RB5_source);MC
      +                          AL_Layer/Interrupts/mcal_external_interrupt.c: 601: {;MCAL_Layer/Interrupts/mcal_externa
      +                          l_interrupt.c: 602:     (INTCONbits.RBIF = 0);
  7137   0027AE  90F2               	bcf	242,0,c	;volatile
  7138   0027B0                     
  7139                           ;MCAL_Layer/Interrupts/mcal_external_interrupt.c: 606:     if(0 == RB5_source)
  7140   0027B0  500B               	movf	RB5_ISR@RB5_source^0,w,c
  7141   0027B2  A4D8               	btfss	status,2,c
  7142   0027B4  EFDE  F013         	goto	i2u398_41
  7143   0027B8  EFE0  F013         	goto	i2u398_40
  7144   0027BC                     i2u398_41:
  7145   0027BC  EFF7  F013         	goto	i2l5033
  7146   0027C0                     i2u398_40:
  7147   0027C0                     
  7148                           ;MCAL_Layer/Interrupts/mcal_external_interrupt.c: 607:     {;MCAL_Layer/Interrupts/mcal_
      +                          external_interrupt.c: 608:         if(Interrupt_handler_RB5_HIGH)
  7149   0027C0  5043               	movf	_Interrupt_handler_RB5_HIGH^0,w,c
  7150   0027C2  1044               	iorwf	(_Interrupt_handler_RB5_HIGH+1)^0,w,c
  7151   0027C4  B4D8               	btfsc	status,2,c
  7152   0027C6  EFE7  F013         	goto	i2u399_41
  7153   0027CA  EFE9  F013         	goto	i2u399_40
  7154   0027CE                     i2u399_41:
  7155   0027CE  EF14  F014         	goto	i2l914
  7156   0027D2                     i2u399_40:
  7157   0027D2                     
  7158                           ;MCAL_Layer/Interrupts/mcal_external_interrupt.c: 609:             Interrupt_handler_RB5
      +                          _HIGH();
  7159   0027D2  D802               	call	i2u400_48
  7160   0027D4  EFF5  F013         	goto	i2u400_49
  7161   0027D8                     i2u400_48:
  7162   0027D8  0005               	push	
  7163   0027DA  6EFA               	movwf	pclath,c
  7164   0027DC  5043               	movf	_Interrupt_handler_RB5_HIGH^0,w,c
  7165   0027DE  6EFD               	movwf	tosl,c
  7166   0027E0  5044               	movf	(_Interrupt_handler_RB5_HIGH+1)^0,w,c
  7167   0027E2  6EFE               	movwf	tosh,c
  7168   0027E4  6AFF               	clrf	tosu,c
  7169   0027E6  50FA               	movf	pclath,w,c
  7170   0027E8  0012               	return		;indir
  7171   0027EA                     i2u400_49:
  7172   0027EA  EF14  F014         	goto	i2l914
  7173   0027EE                     i2l5033:
  7174   0027EE  040B               	decf	RB5_ISR@RB5_source^0,w,c
  7175   0027F0  A4D8               	btfss	status,2,c
  7176   0027F2  EFFD  F013         	goto	i2u401_41
  7177   0027F6  EFFF  F013         	goto	i2u401_40
  7178   0027FA                     i2u401_41:
  7179   0027FA  EF14  F014         	goto	i2l914
  7180   0027FE                     i2u401_40:
  7181   0027FE                     
  7182                           ;MCAL_Layer/Interrupts/mcal_external_interrupt.c: 613:     {;MCAL_Layer/Interrupts/mcal_
      +                          external_interrupt.c: 614:         if(Interrupt_handler_RB5_LOW)
  7183   0027FE  503B               	movf	_Interrupt_handler_RB5_LOW^0,w,c
  7184   002800  103C               	iorwf	(_Interrupt_handler_RB5_LOW+1)^0,w,c
  7185   002802  B4D8               	btfsc	status,2,c
  7186   002804  EF06  F014         	goto	i2u402_41
  7187   002808  EF08  F014         	goto	i2u402_40
  7188   00280C                     i2u402_41:
  7189   00280C  EF14  F014         	goto	i2l914
  7190   002810                     i2u402_40:
  7191   002810                     
  7192                           ;MCAL_Layer/Interrupts/mcal_external_interrupt.c: 615:             Interrupt_handler_RB5
      +                          _LOW();
  7193   002810  D802               	call	i2u403_48
  7194   002812  EF14  F014         	goto	i2u403_49
  7195   002816                     i2u403_48:
  7196   002816  0005               	push	
  7197   002818  6EFA               	movwf	pclath,c
  7198   00281A  503B               	movf	_Interrupt_handler_RB5_LOW^0,w,c
  7199   00281C  6EFD               	movwf	tosl,c
  7200   00281E  503C               	movf	(_Interrupt_handler_RB5_LOW+1)^0,w,c
  7201   002820  6EFE               	movwf	tosh,c
  7202   002822  6AFF               	clrf	tosu,c
  7203   002824  50FA               	movf	pclath,w,c
  7204   002826  0012               	return		;indir
  7205   002828                     i2u403_49:
  7206   002828                     i2l914:
  7207   002828  0012               	return		;funcret
  7208   00282A                     __end_of_RB5_ISR:
  7209                           	callstack 0
  7210                           
  7211 ;; *************** function _RB4_ISR *****************
  7212 ;; Defined at:
  7213 ;;		line 577 in file "MCAL_Layer/Interrupts/mcal_external_interrupt.c"
  7214 ;; Parameters:    Size  Location     Type
  7215 ;;  RB4_source      1    wreg     unsigned char 
  7216 ;; Auto vars:     Size  Location     Type
  7217 ;;  RB4_source      1   10[COMRAM] unsigned char 
  7218 ;; Return value:  Size  Location     Type
  7219 ;;                  1    wreg      void 
  7220 ;; Registers used:
  7221 ;;		wreg, fsr2l, fsr2h, status,2, status,0, pcl, pclath, pclatu, tosl, prodl, prodh, cstack
  7222 ;; Tracked objects:
  7223 ;;		On entry : 0/0
  7224 ;;		On exit  : 0/0
  7225 ;;		Unchanged: 0/0
  7226 ;; Data sizes:     COMRAM   BANK0   BANK1   BANK2   BANK3   BANK4   BANK5   BANK6   BANK7   BANK8   BANK9  BANK10  BANK1
      +1  BANK12  BANK13  BANK14  BANK15
  7227 ;;      Params:         0       0       0       0       0       0       0       0       0       0       0       0       
      +0       0       0       0       0
  7228 ;;      Locals:         1       0       0       0       0       0       0       0       0       0       0       0       
      +0       0       0       0       0
  7229 ;;      Temps:          0       0       0       0       0       0       0       0       0       0       0       0       
      +0       0       0       0       0
  7230 ;;      Totals:         1       0       0       0       0       0       0       0       0       0       0       0       
      +0       0       0       0       0
  7231 ;;Total ram usage:        1 bytes
  7232 ;; Hardware stack levels used: 1
  7233 ;; Hardware stack levels required when called: 3
  7234 ;; This function calls:
  7235 ;;		NULL
  7236 ;;		_RB4_HIGH_Int_APP_ISR
  7237 ;;		_RB4_LOW_Int_APP_ISR
  7238 ;;		_RB5_HIGH_Int_APP_ISR
  7239 ;;		_RB5_LOW_Int_APP_ISR
  7240 ;;		_RB6_HIGH_Int_APP_ISR
  7241 ;;		_RB6_LOW_Int_APP_ISR
  7242 ;;		_RB7_HIGH_Int_APP_ISR
  7243 ;;		_RB7_LOW_Int_APP_ISR
  7244 ;; This function is called by:
  7245 ;;		_INTERRUPT_MANGER_
  7246 ;; This function uses a non-reentrant model
  7247 ;;
  7248                           
  7249                           	psect	text41
  7250   00282A                     __ptext41:
  7251                           	callstack 0
  7252   00282A                     _RB4_ISR:
  7253                           	callstack 20
  7254                           
  7255                           ;incstack = 0
  7256                           ;RB4_ISR@RB4_source stored from wreg
  7257   00282A  6E0B               	movwf	RB4_ISR@RB4_source^0,c
  7258   00282C                     
  7259                           ;MCAL_Layer/Interrupts/mcal_external_interrupt.c: 577: void RB4_ISR(uint8 RB4_source);MC
      +                          AL_Layer/Interrupts/mcal_external_interrupt.c: 578: {;MCAL_Layer/Interrupts/mcal_externa
      +                          l_interrupt.c: 579:     (INTCONbits.RBIF = 0);
  7260   00282C  90F2               	bcf	242,0,c	;volatile
  7261   00282E                     
  7262                           ;MCAL_Layer/Interrupts/mcal_external_interrupt.c: 583:     if(0 == RB4_source)
  7263   00282E  500B               	movf	RB4_ISR@RB4_source^0,w,c
  7264   002830  A4D8               	btfss	status,2,c
  7265   002832  EF1D  F014         	goto	i2u392_41
  7266   002836  EF1F  F014         	goto	i2u392_40
  7267   00283A                     i2u392_41:
  7268   00283A  EF36  F014         	goto	i2l5019
  7269   00283E                     i2u392_40:
  7270   00283E                     
  7271                           ;MCAL_Layer/Interrupts/mcal_external_interrupt.c: 584:     {;MCAL_Layer/Interrupts/mcal_
      +                          external_interrupt.c: 585:         if(Interrupt_handler_RB4_HIGH)
  7272   00283E  5045               	movf	_Interrupt_handler_RB4_HIGH^0,w,c
  7273   002840  1046               	iorwf	(_Interrupt_handler_RB4_HIGH+1)^0,w,c
  7274   002842  B4D8               	btfsc	status,2,c
  7275   002844  EF26  F014         	goto	i2u393_41
  7276   002848  EF28  F014         	goto	i2u393_40
  7277   00284C                     i2u393_41:
  7278   00284C  EF53  F014         	goto	i2l903
  7279   002850                     i2u393_40:
  7280   002850                     
  7281                           ;MCAL_Layer/Interrupts/mcal_external_interrupt.c: 586:             Interrupt_handler_RB4
      +                          _HIGH();
  7282   002850  D802               	call	i2u394_48
  7283   002852  EF34  F014         	goto	i2u394_49
  7284   002856                     i2u394_48:
  7285   002856  0005               	push	
  7286   002858  6EFA               	movwf	pclath,c
  7287   00285A  5045               	movf	_Interrupt_handler_RB4_HIGH^0,w,c
  7288   00285C  6EFD               	movwf	tosl,c
  7289   00285E  5046               	movf	(_Interrupt_handler_RB4_HIGH+1)^0,w,c
  7290   002860  6EFE               	movwf	tosh,c
  7291   002862  6AFF               	clrf	tosu,c
  7292   002864  50FA               	movf	pclath,w,c
  7293   002866  0012               	return		;indir
  7294   002868                     i2u394_49:
  7295   002868  EF53  F014         	goto	i2l903
  7296   00286C                     i2l5019:
  7297   00286C  040B               	decf	RB4_ISR@RB4_source^0,w,c
  7298   00286E  A4D8               	btfss	status,2,c
  7299   002870  EF3C  F014         	goto	i2u395_41
  7300   002874  EF3E  F014         	goto	i2u395_40
  7301   002878                     i2u395_41:
  7302   002878  EF53  F014         	goto	i2l903
  7303   00287C                     i2u395_40:
  7304   00287C                     
  7305                           ;MCAL_Layer/Interrupts/mcal_external_interrupt.c: 590:     {;MCAL_Layer/Interrupts/mcal_
      +                          external_interrupt.c: 591:         if(Interrupt_handler_RB4_LOW)
  7306   00287C  503D               	movf	_Interrupt_handler_RB4_LOW^0,w,c
  7307   00287E  103E               	iorwf	(_Interrupt_handler_RB4_LOW+1)^0,w,c
  7308   002880  B4D8               	btfsc	status,2,c
  7309   002882  EF45  F014         	goto	i2u396_41
  7310   002886  EF47  F014         	goto	i2u396_40
  7311   00288A                     i2u396_41:
  7312   00288A  EF53  F014         	goto	i2l903
  7313   00288E                     i2u396_40:
  7314   00288E                     
  7315                           ;MCAL_Layer/Interrupts/mcal_external_interrupt.c: 592:             Interrupt_handler_RB4
      +                          _LOW();
  7316   00288E  D802               	call	i2u397_48
  7317   002890  EF53  F014         	goto	i2u397_49
  7318   002894                     i2u397_48:
  7319   002894  0005               	push	
  7320   002896  6EFA               	movwf	pclath,c
  7321   002898  503D               	movf	_Interrupt_handler_RB4_LOW^0,w,c
  7322   00289A  6EFD               	movwf	tosl,c
  7323   00289C  503E               	movf	(_Interrupt_handler_RB4_LOW+1)^0,w,c
  7324   00289E  6EFE               	movwf	tosh,c
  7325   0028A0  6AFF               	clrf	tosu,c
  7326   0028A2  50FA               	movf	pclath,w,c
  7327   0028A4  0012               	return		;indir
  7328   0028A6                     i2u397_49:
  7329   0028A6                     i2l903:
  7330   0028A6  0012               	return		;funcret
  7331   0028A8                     __end_of_RB4_ISR:
  7332                           	callstack 0
  7333                           
  7334 ;; *************** function _RB6_LOW_Int_APP_ISR *****************
  7335 ;; Defined at:
  7336 ;;		line 378 in file "ECU_Layer/ecu_layer_initialize.c"
  7337 ;; Parameters:    Size  Location     Type
  7338 ;;		None
  7339 ;; Auto vars:     Size  Location     Type
  7340 ;;		None
  7341 ;; Return value:  Size  Location     Type
  7342 ;;                  1    wreg      void 
  7343 ;; Registers used:
  7344 ;;		wreg, fsr2l, fsr2h, status,2, status,0, prodl, prodh, cstack
  7345 ;; Tracked objects:
  7346 ;;		On entry : 0/0
  7347 ;;		On exit  : 0/0
  7348 ;;		Unchanged: 0/0
  7349 ;; Data sizes:     COMRAM   BANK0   BANK1   BANK2   BANK3   BANK4   BANK5   BANK6   BANK7   BANK8   BANK9  BANK10  BANK1
      +1  BANK12  BANK13  BANK14  BANK15
  7350 ;;      Params:         0       0       0       0       0       0       0       0       0       0       0       0       
      +0       0       0       0       0
  7351 ;;      Locals:         0       0       0       0       0       0       0       0       0       0       0       0       
      +0       0       0       0       0
  7352 ;;      Temps:          0       0       0       0       0       0       0       0       0       0       0       0       
      +0       0       0       0       0
  7353 ;;      Totals:         0       0       0       0       0       0       0       0       0       0       0       0       
      +0       0       0       0       0
  7354 ;;Total ram usage:        0 bytes
  7355 ;; Hardware stack levels used: 1
  7356 ;; Hardware stack levels required when called: 2
  7357 ;; This function calls:
  7358 ;;		i2_led_turn_off
  7359 ;; This function is called by:
  7360 ;;		_RB4_ISR
  7361 ;;		_RB5_ISR
  7362 ;;		_RB6_ISR
  7363 ;;		_RB7_ISR
  7364 ;; This function uses a non-reentrant model
  7365 ;;
  7366                           
  7367                           	psect	text42
  7368   0031F2                     __ptext42:
  7369                           	callstack 0
  7370   0031F2                     _RB6_LOW_Int_APP_ISR:
  7371                           	callstack 20
  7372   0031F2                     
  7373                           ;ECU_Layer/ecu_layer_initialize.c: 380:     led_turn_off(&led2);
  7374   0031F2  0E6B               	movlw	low _led2
  7375   0031F4  6E08               	movwf	i2led_turn_off@led^0,c
  7376   0031F6  ECAA  F015         	call	i2_led_turn_off	;wreg free
  7377   0031FA  0012               	return		;funcret
  7378   0031FC                     __end_of_RB6_LOW_Int_APP_ISR:
  7379                           	callstack 0
  7380                           
  7381 ;; *************** function _RB5_LOW_Int_APP_ISR *****************
  7382 ;; Defined at:
  7383 ;;		line 368 in file "ECU_Layer/ecu_layer_initialize.c"
  7384 ;; Parameters:    Size  Location     Type
  7385 ;;		None
  7386 ;; Auto vars:     Size  Location     Type
  7387 ;;		None
  7388 ;; Return value:  Size  Location     Type
  7389 ;;                  1    wreg      void 
  7390 ;; Registers used:
  7391 ;;		None
  7392 ;; Tracked objects:
  7393 ;;		On entry : 0/0
  7394 ;;		On exit  : 0/0
  7395 ;;		Unchanged: 0/0
  7396 ;; Data sizes:     COMRAM   BANK0   BANK1   BANK2   BANK3   BANK4   BANK5   BANK6   BANK7   BANK8   BANK9  BANK10  BANK1
      +1  BANK12  BANK13  BANK14  BANK15
  7397 ;;      Params:         0       0       0       0       0       0       0       0       0       0       0       0       
      +0       0       0       0       0
  7398 ;;      Locals:         0       0       0       0       0       0       0       0       0       0       0       0       
      +0       0       0       0       0
  7399 ;;      Temps:          0       0       0       0       0       0       0       0       0       0       0       0       
      +0       0       0       0       0
  7400 ;;      Totals:         0       0       0       0       0       0       0       0       0       0       0       0       
      +0       0       0       0       0
  7401 ;;Total ram usage:        0 bytes
  7402 ;; Hardware stack levels used: 1
  7403 ;; This function calls:
  7404 ;;		Nothing
  7405 ;; This function is called by:
  7406 ;;		_RB4_ISR
  7407 ;;		_RB5_ISR
  7408 ;;		_RB6_ISR
  7409 ;;		_RB7_ISR
  7410 ;; This function uses a non-reentrant model
  7411 ;;
  7412                           
  7413                           	psect	text43
  7414   00322A                     __ptext43:
  7415                           	callstack 0
  7416   00322A                     _RB5_LOW_Int_APP_ISR:
  7417                           	callstack 22
  7418   00322A  0012               	return		;funcret
  7419   00322C                     __end_of_RB5_LOW_Int_APP_ISR:
  7420                           	callstack 0
  7421                           
  7422 ;; *************** function _RB4_LOW_Int_APP_ISR *****************
  7423 ;; Defined at:
  7424 ;;		line 358 in file "ECU_Layer/ecu_layer_initialize.c"
  7425 ;; Parameters:    Size  Location     Type
  7426 ;;		None
  7427 ;; Auto vars:     Size  Location     Type
  7428 ;;		None
  7429 ;; Return value:  Size  Location     Type
  7430 ;;                  1    wreg      void 
  7431 ;; Registers used:
  7432 ;;		None
  7433 ;; Tracked objects:
  7434 ;;		On entry : 0/0
  7435 ;;		On exit  : 0/0
  7436 ;;		Unchanged: 0/0
  7437 ;; Data sizes:     COMRAM   BANK0   BANK1   BANK2   BANK3   BANK4   BANK5   BANK6   BANK7   BANK8   BANK9  BANK10  BANK1
      +1  BANK12  BANK13  BANK14  BANK15
  7438 ;;      Params:         0       0       0       0       0       0       0       0       0       0       0       0       
      +0       0       0       0       0
  7439 ;;      Locals:         0       0       0       0       0       0       0       0       0       0       0       0       
      +0       0       0       0       0
  7440 ;;      Temps:          0       0       0       0       0       0       0       0       0       0       0       0       
      +0       0       0       0       0
  7441 ;;      Totals:         0       0       0       0       0       0       0       0       0       0       0       0       
      +0       0       0       0       0
  7442 ;;Total ram usage:        0 bytes
  7443 ;; Hardware stack levels used: 1
  7444 ;; This function calls:
  7445 ;;		Nothing
  7446 ;; This function is called by:
  7447 ;;		_RB4_ISR
  7448 ;;		_RB5_ISR
  7449 ;;		_RB6_ISR
  7450 ;;		_RB7_ISR
  7451 ;; This function uses a non-reentrant model
  7452 ;;
  7453                           
  7454                           	psect	text44
  7455   00322C                     __ptext44:
  7456                           	callstack 0
  7457   00322C                     _RB4_LOW_Int_APP_ISR:
  7458                           	callstack 22
  7459   00322C  0012               	return		;funcret
  7460   00322E                     __end_of_RB4_LOW_Int_APP_ISR:
  7461                           	callstack 0
  7462                           
  7463 ;; *************** function _RB7_LOW_Int_APP_ISR *****************
  7464 ;; Defined at:
  7465 ;;		line 388 in file "ECU_Layer/ecu_layer_initialize.c"
  7466 ;; Parameters:    Size  Location     Type
  7467 ;;		None
  7468 ;; Auto vars:     Size  Location     Type
  7469 ;;		None
  7470 ;; Return value:  Size  Location     Type
  7471 ;;                  1    wreg      void 
  7472 ;; Registers used:
  7473 ;;		wreg, fsr2l, fsr2h, status,2, status,0, prodl, prodh, cstack
  7474 ;; Tracked objects:
  7475 ;;		On entry : 0/0
  7476 ;;		On exit  : 0/0
  7477 ;;		Unchanged: 0/0
  7478 ;; Data sizes:     COMRAM   BANK0   BANK1   BANK2   BANK3   BANK4   BANK5   BANK6   BANK7   BANK8   BANK9  BANK10  BANK1
      +1  BANK12  BANK13  BANK14  BANK15
  7479 ;;      Params:         0       0       0       0       0       0       0       0       0       0       0       0       
      +0       0       0       0       0
  7480 ;;      Locals:         0       0       0       0       0       0       0       0       0       0       0       0       
      +0       0       0       0       0
  7481 ;;      Temps:          0       0       0       0       0       0       0       0       0       0       0       0       
      +0       0       0       0       0
  7482 ;;      Totals:         0       0       0       0       0       0       0       0       0       0       0       0       
      +0       0       0       0       0
  7483 ;;Total ram usage:        0 bytes
  7484 ;; Hardware stack levels used: 1
  7485 ;; Hardware stack levels required when called: 2
  7486 ;; This function calls:
  7487 ;;		i2_led_turn_off
  7488 ;; This function is called by:
  7489 ;;		_RB4_ISR
  7490 ;;		_RB5_ISR
  7491 ;;		_RB6_ISR
  7492 ;;		_RB7_ISR
  7493 ;; This function uses a non-reentrant model
  7494 ;;
  7495                           
  7496                           	psect	text45
  7497   0031FC                     __ptext45:
  7498                           	callstack 0
  7499   0031FC                     _RB7_LOW_Int_APP_ISR:
  7500                           	callstack 20
  7501   0031FC                     
  7502                           ;ECU_Layer/ecu_layer_initialize.c: 390:     led_turn_off(&led3);
  7503   0031FC  0E6A               	movlw	low _led3
  7504   0031FE  6E08               	movwf	i2led_turn_off@led^0,c
  7505   003200  ECAA  F015         	call	i2_led_turn_off	;wreg free
  7506   003204  0012               	return		;funcret
  7507   003206                     __end_of_RB7_LOW_Int_APP_ISR:
  7508                           	callstack 0
  7509                           
  7510 ;; *************** function _RB6_HIGH_Int_APP_ISR *****************
  7511 ;; Defined at:
  7512 ;;		line 373 in file "ECU_Layer/ecu_layer_initialize.c"
  7513 ;; Parameters:    Size  Location     Type
  7514 ;;		None
  7515 ;; Auto vars:     Size  Location     Type
  7516 ;;		None
  7517 ;; Return value:  Size  Location     Type
  7518 ;;                  1    wreg      void 
  7519 ;; Registers used:
  7520 ;;		wreg, fsr2l, fsr2h, status,2, status,0, prodl, prodh, cstack
  7521 ;; Tracked objects:
  7522 ;;		On entry : 0/0
  7523 ;;		On exit  : 0/0
  7524 ;;		Unchanged: 0/0
  7525 ;; Data sizes:     COMRAM   BANK0   BANK1   BANK2   BANK3   BANK4   BANK5   BANK6   BANK7   BANK8   BANK9  BANK10  BANK1
      +1  BANK12  BANK13  BANK14  BANK15
  7526 ;;      Params:         0       0       0       0       0       0       0       0       0       0       0       0       
      +0       0       0       0       0
  7527 ;;      Locals:         0       0       0       0       0       0       0       0       0       0       0       0       
      +0       0       0       0       0
  7528 ;;      Temps:          0       0       0       0       0       0       0       0       0       0       0       0       
      +0       0       0       0       0
  7529 ;;      Totals:         0       0       0       0       0       0       0       0       0       0       0       0       
      +0       0       0       0       0
  7530 ;;Total ram usage:        0 bytes
  7531 ;; Hardware stack levels used: 1
  7532 ;; Hardware stack levels required when called: 2
  7533 ;; This function calls:
  7534 ;;		i2_led_turn_on
  7535 ;; This function is called by:
  7536 ;;		_RB4_ISR
  7537 ;;		_RB5_ISR
  7538 ;;		_RB6_ISR
  7539 ;;		_RB7_ISR
  7540 ;; This function uses a non-reentrant model
  7541 ;;
  7542                           
  7543                           	psect	text46
  7544   003206                     __ptext46:
  7545                           	callstack 0
  7546   003206                     _RB6_HIGH_Int_APP_ISR:
  7547                           	callstack 20
  7548   003206                     
  7549                           ;ECU_Layer/ecu_layer_initialize.c: 375:     led_turn_on(&led2);
  7550   003206  0E6B               	movlw	low _led2
  7551   003208  6E08               	movwf	i2led_turn_on@led^0,c
  7552   00320A  ECDF  F015         	call	i2_led_turn_on	;wreg free
  7553   00320E  0012               	return		;funcret
  7554   003210                     __end_of_RB6_HIGH_Int_APP_ISR:
  7555                           	callstack 0
  7556                           
  7557 ;; *************** function _RB5_HIGH_Int_APP_ISR *****************
  7558 ;; Defined at:
  7559 ;;		line 363 in file "ECU_Layer/ecu_layer_initialize.c"
  7560 ;; Parameters:    Size  Location     Type
  7561 ;;		None
  7562 ;; Auto vars:     Size  Location     Type
  7563 ;;		None
  7564 ;; Return value:  Size  Location     Type
  7565 ;;                  1    wreg      void 
  7566 ;; Registers used:
  7567 ;;		None
  7568 ;; Tracked objects:
  7569 ;;		On entry : 0/0
  7570 ;;		On exit  : 0/0
  7571 ;;		Unchanged: 0/0
  7572 ;; Data sizes:     COMRAM   BANK0   BANK1   BANK2   BANK3   BANK4   BANK5   BANK6   BANK7   BANK8   BANK9  BANK10  BANK1
      +1  BANK12  BANK13  BANK14  BANK15
  7573 ;;      Params:         0       0       0       0       0       0       0       0       0       0       0       0       
      +0       0       0       0       0
  7574 ;;      Locals:         0       0       0       0       0       0       0       0       0       0       0       0       
      +0       0       0       0       0
  7575 ;;      Temps:          0       0       0       0       0       0       0       0       0       0       0       0       
      +0       0       0       0       0
  7576 ;;      Totals:         0       0       0       0       0       0       0       0       0       0       0       0       
      +0       0       0       0       0
  7577 ;;Total ram usage:        0 bytes
  7578 ;; Hardware stack levels used: 1
  7579 ;; This function calls:
  7580 ;;		Nothing
  7581 ;; This function is called by:
  7582 ;;		_RB4_ISR
  7583 ;;		_RB5_ISR
  7584 ;;		_RB6_ISR
  7585 ;;		_RB7_ISR
  7586 ;; This function uses a non-reentrant model
  7587 ;;
  7588                           
  7589                           	psect	text47
  7590   00322E                     __ptext47:
  7591                           	callstack 0
  7592   00322E                     _RB5_HIGH_Int_APP_ISR:
  7593                           	callstack 22
  7594   00322E  0012               	return		;funcret
  7595   003230                     __end_of_RB5_HIGH_Int_APP_ISR:
  7596                           	callstack 0
  7597                           
  7598 ;; *************** function _RB4_HIGH_Int_APP_ISR *****************
  7599 ;; Defined at:
  7600 ;;		line 353 in file "ECU_Layer/ecu_layer_initialize.c"
  7601 ;; Parameters:    Size  Location     Type
  7602 ;;		None
  7603 ;; Auto vars:     Size  Location     Type
  7604 ;;		None
  7605 ;; Return value:  Size  Location     Type
  7606 ;;                  1    wreg      void 
  7607 ;; Registers used:
  7608 ;;		None
  7609 ;; Tracked objects:
  7610 ;;		On entry : 0/0
  7611 ;;		On exit  : 0/0
  7612 ;;		Unchanged: 0/0
  7613 ;; Data sizes:     COMRAM   BANK0   BANK1   BANK2   BANK3   BANK4   BANK5   BANK6   BANK7   BANK8   BANK9  BANK10  BANK1
      +1  BANK12  BANK13  BANK14  BANK15
  7614 ;;      Params:         0       0       0       0       0       0       0       0       0       0       0       0       
      +0       0       0       0       0
  7615 ;;      Locals:         0       0       0       0       0       0       0       0       0       0       0       0       
      +0       0       0       0       0
  7616 ;;      Temps:          0       0       0       0       0       0       0       0       0       0       0       0       
      +0       0       0       0       0
  7617 ;;      Totals:         0       0       0       0       0       0       0       0       0       0       0       0       
      +0       0       0       0       0
  7618 ;;Total ram usage:        0 bytes
  7619 ;; Hardware stack levels used: 1
  7620 ;; This function calls:
  7621 ;;		Nothing
  7622 ;; This function is called by:
  7623 ;;		_RB4_ISR
  7624 ;;		_RB5_ISR
  7625 ;;		_RB6_ISR
  7626 ;;		_RB7_ISR
  7627 ;; This function uses a non-reentrant model
  7628 ;;
  7629                           
  7630                           	psect	text48
  7631   003230                     __ptext48:
  7632                           	callstack 0
  7633   003230                     _RB4_HIGH_Int_APP_ISR:
  7634                           	callstack 22
  7635   003230  0012               	return		;funcret
  7636   003232                     __end_of_RB4_HIGH_Int_APP_ISR:
  7637                           	callstack 0
  7638                           
  7639 ;; *************** function _RB7_HIGH_Int_APP_ISR *****************
  7640 ;; Defined at:
  7641 ;;		line 383 in file "ECU_Layer/ecu_layer_initialize.c"
  7642 ;; Parameters:    Size  Location     Type
  7643 ;;		None
  7644 ;; Auto vars:     Size  Location     Type
  7645 ;;		None
  7646 ;; Return value:  Size  Location     Type
  7647 ;;                  1    wreg      void 
  7648 ;; Registers used:
  7649 ;;		wreg, fsr2l, fsr2h, status,2, status,0, prodl, prodh, cstack
  7650 ;; Tracked objects:
  7651 ;;		On entry : 0/0
  7652 ;;		On exit  : 0/0
  7653 ;;		Unchanged: 0/0
  7654 ;; Data sizes:     COMRAM   BANK0   BANK1   BANK2   BANK3   BANK4   BANK5   BANK6   BANK7   BANK8   BANK9  BANK10  BANK1
      +1  BANK12  BANK13  BANK14  BANK15
  7655 ;;      Params:         0       0       0       0       0       0       0       0       0       0       0       0       
      +0       0       0       0       0
  7656 ;;      Locals:         0       0       0       0       0       0       0       0       0       0       0       0       
      +0       0       0       0       0
  7657 ;;      Temps:          0       0       0       0       0       0       0       0       0       0       0       0       
      +0       0       0       0       0
  7658 ;;      Totals:         0       0       0       0       0       0       0       0       0       0       0       0       
      +0       0       0       0       0
  7659 ;;Total ram usage:        0 bytes
  7660 ;; Hardware stack levels used: 1
  7661 ;; Hardware stack levels required when called: 2
  7662 ;; This function calls:
  7663 ;;		i2_led_turn_on
  7664 ;; This function is called by:
  7665 ;;		_RB4_ISR
  7666 ;;		_RB5_ISR
  7667 ;;		_RB6_ISR
  7668 ;;		_RB7_ISR
  7669 ;; This function uses a non-reentrant model
  7670 ;;
  7671                           
  7672                           	psect	text49
  7673   003210                     __ptext49:
  7674                           	callstack 0
  7675   003210                     _RB7_HIGH_Int_APP_ISR:
  7676                           	callstack 20
  7677   003210                     
  7678                           ;ECU_Layer/ecu_layer_initialize.c: 385:     led_turn_on(&led3);
  7679   003210  0E6A               	movlw	low _led3
  7680   003212  6E08               	movwf	i2led_turn_on@led^0,c
  7681   003214  ECDF  F015         	call	i2_led_turn_on	;wreg free
  7682   003218  0012               	return		;funcret
  7683   00321A                     __end_of_RB7_HIGH_Int_APP_ISR:
  7684                           	callstack 0
  7685                           
  7686 ;; *************** function i2_led_turn_off *****************
  7687 ;; Defined at:
  7688 ;;		line 61 in file "ECU_Layer/LED/ecu_led.c"
  7689 ;; Parameters:    Size  Location     Type
  7690 ;;  led             1    7[COMRAM] PTR const struct .
  7691 ;;		 -> led3(1), led2(1), led_red(1), led_green(1), 
  7692 ;; Auto vars:     Size  Location     Type
  7693 ;;  pin_obj         1    9[COMRAM] struct .
  7694 ;;  ret             1    0        unsigned char 
  7695 ;; Return value:  Size  Location     Type
  7696 ;;                  1    wreg      unsigned char 
  7697 ;; Registers used:
  7698 ;;		wreg, fsr2l, fsr2h, status,2, status,0, prodl, prodh, cstack
  7699 ;; Tracked objects:
  7700 ;;		On entry : 0/0
  7701 ;;		On exit  : 0/0
  7702 ;;		Unchanged: 0/0
  7703 ;; Data sizes:     COMRAM   BANK0   BANK1   BANK2   BANK3   BANK4   BANK5   BANK6   BANK7   BANK8   BANK9  BANK10  BANK1
      +1  BANK12  BANK13  BANK14  BANK15
  7704 ;;      Params:         1       0       0       0       0       0       0       0       0       0       0       0       
      +0       0       0       0       0
  7705 ;;      Locals:         1       0       0       0       0       0       0       0       0       0       0       0       
      +0       0       0       0       0
  7706 ;;      Temps:          1       0       0       0       0       0       0       0       0       0       0       0       
      +0       0       0       0       0
  7707 ;;      Totals:         3       0       0       0       0       0       0       0       0       0       0       0       
      +0       0       0       0       0
  7708 ;;Total ram usage:        3 bytes
  7709 ;; Hardware stack levels used: 1
  7710 ;; Hardware stack levels required when called: 1
  7711 ;; This function calls:
  7712 ;;		i2_gpio_pin_write_logic
  7713 ;; This function is called by:
  7714 ;;		_RB6_LOW_Int_APP_ISR
  7715 ;;		_RB7_LOW_Int_APP_ISR
  7716 ;; This function uses a non-reentrant model
  7717 ;;
  7718                           
  7719                           	psect	text50
  7720   002B54                     __ptext50:
  7721                           	callstack 0
  7722   002B54                     i2_led_turn_off:
  7723                           	callstack 20
  7724   002B54                     
  7725                           ;ECU_Layer/LED/ecu_led.c: 64:     pin_config_t pin_obj = {.port = led->port_name
  7726   002B54  C056  F00A         	movff	led_turn_off@F3489,i2led_turn_off@pin_obj
  7727   002B58  5008               	movf	i2led_turn_off@led^0,w,c
  7728   002B5A  6ED9               	movwf	fsr2l,c
  7729   002B5C  6ADA               	clrf	fsr2h,c
  7730   002B5E  50DF               	movf	223,w,c
  7731   002B60  0B0F               	andlw	15
  7732   002B62  6E09               	movwf	??i2_led_turn_off^0,c
  7733   002B64  500A               	movf	i2led_turn_off@pin_obj^0,w,c
  7734   002B66  1809               	xorwf	??i2_led_turn_off^0,w,c
  7735   002B68  0BF8               	andlw	-8
  7736   002B6A  1809               	xorwf	??i2_led_turn_off^0,w,c
  7737   002B6C  6E0A               	movwf	i2led_turn_off@pin_obj^0,c
  7738   002B6E  5008               	movf	i2led_turn_off@led^0,w,c
  7739   002B70  6ED9               	movwf	fsr2l,c
  7740   002B72  6ADA               	clrf	fsr2h,c
  7741   002B74  38DF               	swapf	223,w,c
  7742   002B76  0B07               	andlw	7
  7743   002B78  6E09               	movwf	??i2_led_turn_off^0,c
  7744   002B7A  4609               	rlncf	??i2_led_turn_off^0,f,c
  7745   002B7C  4609               	rlncf	??i2_led_turn_off^0,f,c
  7746   002B7E  4609               	rlncf	??i2_led_turn_off^0,f,c
  7747   002B80  500A               	movf	i2led_turn_off@pin_obj^0,w,c
  7748   002B82  1809               	xorwf	??i2_led_turn_off^0,w,c
  7749   002B84  0BC7               	andlw	-57
  7750   002B86  1809               	xorwf	??i2_led_turn_off^0,w,c
  7751   002B88  6E0A               	movwf	i2led_turn_off@pin_obj^0,c
  7752   002B8A  9C0A               	bcf	i2led_turn_off@pin_obj^0,6,c
  7753   002B8C  5008               	movf	i2led_turn_off@led^0,w,c
  7754   002B8E  6ED9               	movwf	fsr2l,c
  7755   002B90  6ADA               	clrf	fsr2h,c
  7756   002B92  AEDF               	btfss	indf2,7,c
  7757   002B94  D002               	bra	i2u336_45
  7758   002B96  8E0A               	bsf	i2led_turn_off@pin_obj^0,7,c
  7759   002B98  D001               	bra	i2u336_47
  7760   002B9A                     i2u336_45:
  7761   002B9A  9E0A               	bcf	i2led_turn_off@pin_obj^0,7,c
  7762   002B9C                     i2u336_47:
  7763   002B9C                     
  7764                           ;ECU_Layer/LED/ecu_led.c: 68:     if(((void*)0) == led)
  7765   002B9C  5008               	movf	i2led_turn_off@led^0,w,c
  7766   002B9E  A4D8               	btfss	status,2,c
  7767   002BA0  EFD4  F015         	goto	i2u337_41
  7768   002BA4  EFD6  F015         	goto	i2u337_40
  7769   002BA8                     i2u337_41:
  7770   002BA8  EFD8  F015         	goto	i2l4481
  7771   002BAC                     i2u337_40:
  7772   002BAC  EFDE  F015         	goto	i2l302
  7773   002BB0                     i2l4481:
  7774                           
  7775                           ;ECU_Layer/LED/ecu_led.c: 71:     {;ECU_Layer/LED/ecu_led.c: 72:         gpio_pin_write_
      +                          logic(&pin_obj , LOW);
  7776   002BB0  0E0A               	movlw	low i2led_turn_off@pin_obj
  7777   002BB2  6E01               	movwf	i2gpio_pin_write_logic@_pin_config^0,c
  7778   002BB4  0E00               	movlw	0
  7779   002BB6  6E02               	movwf	i2gpio_pin_write_logic@logic^0,c
  7780   002BB8  EC12  F00F         	call	i2_gpio_pin_write_logic	;wreg free
  7781   002BBC                     i2l302:
  7782   002BBC  0012               	return		;funcret
  7783   002BBE                     __end_ofi2_led_turn_off:
  7784                           	callstack 0
  7785                           
  7786 ;; *************** function i2_led_turn_on *****************
  7787 ;; Defined at:
  7788 ;;		line 36 in file "ECU_Layer/LED/ecu_led.c"
  7789 ;; Parameters:    Size  Location     Type
  7790 ;;  led             1    7[COMRAM] PTR const struct .
  7791 ;;		 -> led3(1), led2(1), led_red(1), led_green(1), 
  7792 ;; Auto vars:     Size  Location     Type
  7793 ;;  pin_obj         1    9[COMRAM] struct .
  7794 ;;  ret             1    0        unsigned char 
  7795 ;; Return value:  Size  Location     Type
  7796 ;;                  1    wreg      unsigned char 
  7797 ;; Registers used:
  7798 ;;		wreg, fsr2l, fsr2h, status,2, status,0, prodl, prodh, cstack
  7799 ;; Tracked objects:
  7800 ;;		On entry : 0/0
  7801 ;;		On exit  : 0/0
  7802 ;;		Unchanged: 0/0
  7803 ;; Data sizes:     COMRAM   BANK0   BANK1   BANK2   BANK3   BANK4   BANK5   BANK6   BANK7   BANK8   BANK9  BANK10  BANK1
      +1  BANK12  BANK13  BANK14  BANK15
  7804 ;;      Params:         1       0       0       0       0       0       0       0       0       0       0       0       
      +0       0       0       0       0
  7805 ;;      Locals:         1       0       0       0       0       0       0       0       0       0       0       0       
      +0       0       0       0       0
  7806 ;;      Temps:          1       0       0       0       0       0       0       0       0       0       0       0       
      +0       0       0       0       0
  7807 ;;      Totals:         3       0       0       0       0       0       0       0       0       0       0       0       
      +0       0       0       0       0
  7808 ;;Total ram usage:        3 bytes
  7809 ;; Hardware stack levels used: 1
  7810 ;; Hardware stack levels required when called: 1
  7811 ;; This function calls:
  7812 ;;		i2_gpio_pin_write_logic
  7813 ;; This function is called by:
  7814 ;;		_RB6_HIGH_Int_APP_ISR
  7815 ;;		_RB7_HIGH_Int_APP_ISR
  7816 ;; This function uses a non-reentrant model
  7817 ;;
  7818                           
  7819                           	psect	text51
  7820   002BBE                     __ptext51:
  7821                           	callstack 0
  7822   002BBE                     i2_led_turn_on:
  7823                           	callstack 20
  7824   002BBE                     
  7825                           ;ECU_Layer/LED/ecu_led.c: 39:     pin_config_t pin_obj = {.port = led->port_name
  7826   002BBE  C057  F00A         	movff	led_turn_on@F3484,i2led_turn_on@pin_obj
  7827   002BC2  5008               	movf	i2led_turn_on@led^0,w,c
  7828   002BC4  6ED9               	movwf	fsr2l,c
  7829   002BC6  6ADA               	clrf	fsr2h,c
  7830   002BC8  50DF               	movf	223,w,c
  7831   002BCA  0B0F               	andlw	15
  7832   002BCC  6E09               	movwf	??i2_led_turn_on^0,c
  7833   002BCE  500A               	movf	i2led_turn_on@pin_obj^0,w,c
  7834   002BD0  1809               	xorwf	??i2_led_turn_on^0,w,c
  7835   002BD2  0BF8               	andlw	-8
  7836   002BD4  1809               	xorwf	??i2_led_turn_on^0,w,c
  7837   002BD6  6E0A               	movwf	i2led_turn_on@pin_obj^0,c
  7838   002BD8  5008               	movf	i2led_turn_on@led^0,w,c
  7839   002BDA  6ED9               	movwf	fsr2l,c
  7840   002BDC  6ADA               	clrf	fsr2h,c
  7841   002BDE  38DF               	swapf	223,w,c
  7842   002BE0  0B07               	andlw	7
  7843   002BE2  6E09               	movwf	??i2_led_turn_on^0,c
  7844   002BE4  4609               	rlncf	??i2_led_turn_on^0,f,c
  7845   002BE6  4609               	rlncf	??i2_led_turn_on^0,f,c
  7846   002BE8  4609               	rlncf	??i2_led_turn_on^0,f,c
  7847   002BEA  500A               	movf	i2led_turn_on@pin_obj^0,w,c
  7848   002BEC  1809               	xorwf	??i2_led_turn_on^0,w,c
  7849   002BEE  0BC7               	andlw	-57
  7850   002BF0  1809               	xorwf	??i2_led_turn_on^0,w,c
  7851   002BF2  6E0A               	movwf	i2led_turn_on@pin_obj^0,c
  7852   002BF4  9C0A               	bcf	i2led_turn_on@pin_obj^0,6,c
  7853   002BF6  5008               	movf	i2led_turn_on@led^0,w,c
  7854   002BF8  6ED9               	movwf	fsr2l,c
  7855   002BFA  6ADA               	clrf	fsr2h,c
  7856   002BFC  AEDF               	btfss	indf2,7,c
  7857   002BFE  D002               	bra	i2u334_45
  7858   002C00  8E0A               	bsf	i2led_turn_on@pin_obj^0,7,c
  7859   002C02  D001               	bra	i2u334_47
  7860   002C04                     i2u334_45:
  7861   002C04  9E0A               	bcf	i2led_turn_on@pin_obj^0,7,c
  7862   002C06                     i2u334_47:
  7863   002C06                     
  7864                           ;ECU_Layer/LED/ecu_led.c: 43:     if(((void*)0) == led)
  7865   002C06  5008               	movf	i2led_turn_on@led^0,w,c
  7866   002C08  A4D8               	btfss	status,2,c
  7867   002C0A  EF09  F016         	goto	i2u335_41
  7868   002C0E  EF0B  F016         	goto	i2u335_40
  7869   002C12                     i2u335_41:
  7870   002C12  EF0D  F016         	goto	i2l4461
  7871   002C16                     i2u335_40:
  7872   002C16  EF13  F016         	goto	i2l295
  7873   002C1A                     i2l4461:
  7874                           
  7875                           ;ECU_Layer/LED/ecu_led.c: 46:     {;ECU_Layer/LED/ecu_led.c: 47:         gpio_pin_write_
      +                          logic(&pin_obj , HIGH);
  7876   002C1A  0E0A               	movlw	low i2led_turn_on@pin_obj
  7877   002C1C  6E01               	movwf	i2gpio_pin_write_logic@_pin_config^0,c
  7878   002C1E  0E01               	movlw	1
  7879   002C20  6E02               	movwf	i2gpio_pin_write_logic@logic^0,c
  7880   002C22  EC12  F00F         	call	i2_gpio_pin_write_logic	;wreg free
  7881   002C26                     i2l295:
  7882   002C26  0012               	return		;funcret
  7883   002C28                     __end_ofi2_led_turn_on:
  7884                           	callstack 0
  7885                           
  7886 ;; *************** function i2_gpio_pin_write_logic *****************
  7887 ;; Defined at:
  7888 ;;		line 61 in file "MCAL_Layer/GPIO/hal_gpio.c"
  7889 ;; Parameters:    Size  Location     Type
  7890 ;;  _pin_config     1    0[COMRAM] PTR const struct .
  7891 ;;		 -> i2led_turn_off@pin_obj(1), i2led_turn_on@pin_obj(1), motor_1(2), KeyPad1(8), 
  7892 ;;		 -> lcd_1(6), relay_turn_off@pin_obj(1), relay_turn_on@pin_obj(1), led_turn_off@pin_obj(1), 
  7893 ;;		 -> led_turn_on@pin_obj(1), 
  7894 ;;  logic           1    1[COMRAM] unsigned char 
  7895 ;; Auto vars:     Size  Location     Type
  7896 ;;  ret             1    0        unsigned char 
  7897 ;; Return value:  Size  Location     Type
  7898 ;;                  1    wreg      unsigned char 
  7899 ;; Registers used:
  7900 ;;		wreg, fsr2l, fsr2h, status,2, status,0, prodl, prodh
  7901 ;; Tracked objects:
  7902 ;;		On entry : 0/0
  7903 ;;		On exit  : 0/0
  7904 ;;		Unchanged: 0/0
  7905 ;; Data sizes:     COMRAM   BANK0   BANK1   BANK2   BANK3   BANK4   BANK5   BANK6   BANK7   BANK8   BANK9  BANK10  BANK1
      +1  BANK12  BANK13  BANK14  BANK15
  7906 ;;      Params:         2       0       0       0       0       0       0       0       0       0       0       0       
      +0       0       0       0       0
  7907 ;;      Locals:         0       0       0       0       0       0       0       0       0       0       0       0       
      +0       0       0       0       0
  7908 ;;      Temps:          5       0       0       0       0       0       0       0       0       0       0       0       
      +0       0       0       0       0
  7909 ;;      Totals:         7       0       0       0       0       0       0       0       0       0       0       0       
      +0       0       0       0       0
  7910 ;;Total ram usage:        7 bytes
  7911 ;; Hardware stack levels used: 1
  7912 ;; This function calls:
  7913 ;;		Nothing
  7914 ;; This function is called by:
  7915 ;;		i2_led_turn_on
  7916 ;;		i2_led_turn_off
  7917 ;; This function uses a non-reentrant model
  7918 ;;
  7919                           
  7920                           	psect	text52
  7921   001E24                     __ptext52:
  7922                           	callstack 0
  7923   001E24                     i2_gpio_pin_write_logic:
  7924                           	callstack 20
  7925   001E24                     
  7926                           ;MCAL_Layer/GPIO/hal_gpio.c: 64:     if((_pin_config == ((void*)0)) || (_pin_config->pin
      +                           > 8 -1))
  7927   001E24  5001               	movf	i2gpio_pin_write_logic@_pin_config^0,w,c
  7928   001E26  B4D8               	btfsc	status,2,c
  7929   001E28  EF18  F00F         	goto	i2u320_41
  7930   001E2C  EF1A  F00F         	goto	i2u320_40
  7931   001E30                     i2u320_41:
  7932   001E30  EF2A  F00F         	goto	i2l4365
  7933   001E34                     i2u320_40:
  7934   001E34  5001               	movf	i2gpio_pin_write_logic@_pin_config^0,w,c
  7935   001E36  6ED9               	movwf	fsr2l,c
  7936   001E38  6ADA               	clrf	fsr2h,c
  7937   001E3A  30DF               	rrcf	223,w,c
  7938   001E3C  32E8               	rrcf	wreg,f,c
  7939   001E3E  32E8               	rrcf	wreg,f,c
  7940   001E40  0B07               	andlw	7
  7941   001E42  6E03               	movwf	??i2_gpio_pin_write_logic^0,c
  7942   001E44  0E07               	movlw	7
  7943   001E46  6403               	cpfsgt	??i2_gpio_pin_write_logic^0,c
  7944   001E48  EF28  F00F         	goto	i2u321_41
  7945   001E4C  EF2A  F00F         	goto	i2u321_40
  7946   001E50                     i2u321_41:
  7947   001E50  EF7F  F00F         	goto	i2l4373
  7948   001E54                     i2u321_40:
  7949   001E54                     i2l4365:
  7950   001E54  EF94  F00F         	goto	i2l642
  7951   001E58                     i2l4367:
  7952                           
  7953                           ;MCAL_Layer/GPIO/hal_gpio.c: 71:                 ((*((volatile uint8 *)(lat_register[_pi
      +                          n_config->port]))) &= ~((uint8)1 << _pin_config->pin));
  7954   001E58  5001               	movf	i2gpio_pin_write_logic@_pin_config^0,w,c
  7955   001E5A  6ED9               	movwf	fsr2l,c
  7956   001E5C  6ADA               	clrf	fsr2h,c
  7957   001E5E  30DF               	rrcf	223,w,c
  7958   001E60  32E8               	rrcf	wreg,f,c
  7959   001E62  32E8               	rrcf	wreg,f,c
  7960   001E64  0B07               	andlw	7
  7961   001E66  6E03               	movwf	??i2_gpio_pin_write_logic^0,c
  7962   001E68  0E01               	movlw	1
  7963   001E6A  6E04               	movwf	(??i2_gpio_pin_write_logic+1)^0,c
  7964   001E6C  2A03               	incf	??i2_gpio_pin_write_logic^0,f,c
  7965   001E6E  EF3B  F00F         	goto	i2u322_44
  7966   001E72                     i2u322_45:
  7967   001E72  90D8               	bcf	status,0,c
  7968   001E74  3604               	rlcf	(??i2_gpio_pin_write_logic+1)^0,f,c
  7969   001E76                     i2u322_44:
  7970   001E76  2E03               	decfsz	??i2_gpio_pin_write_logic^0,f,c
  7971   001E78  EF39  F00F         	goto	i2u322_45
  7972   001E7C  5004               	movf	(??i2_gpio_pin_write_logic+1)^0,w,c
  7973   001E7E  0AFF               	xorlw	255
  7974   001E80  6E05               	movwf	(??i2_gpio_pin_write_logic+2)^0,c
  7975   001E82  5001               	movf	i2gpio_pin_write_logic@_pin_config^0,w,c
  7976   001E84  6ED9               	movwf	fsr2l,c
  7977   001E86  6ADA               	clrf	fsr2h,c
  7978   001E88  50DF               	movf	223,w,c
  7979   001E8A  0B07               	andlw	7
  7980   001E8C  0D02               	mullw	2
  7981   001E8E  50F3               	movf	243,w,c
  7982   001E90  0F8A               	addlw	low _lat_register
  7983   001E92  6ED9               	movwf	fsr2l,c
  7984   001E94  6ADA               	clrf	fsr2h,c
  7985   001E96  CFDE F006          	movff	postinc2,??i2_gpio_pin_write_logic+3
  7986   001E9A  CFDD F007          	movff	postdec2,??i2_gpio_pin_write_logic+4
  7987   001E9E  C006  FFD9         	movff	??i2_gpio_pin_write_logic+3,fsr2l
  7988   001EA2  C007  FFDA         	movff	??i2_gpio_pin_write_logic+4,fsr2h
  7989   001EA6  5005               	movf	(??i2_gpio_pin_write_logic+2)^0,w,c
  7990   001EA8  16DF               	andwf	indf2,f,c
  7991                           
  7992                           ;MCAL_Layer/GPIO/hal_gpio.c: 72:                 break;
  7993   001EAA  EF94  F00F         	goto	i2l642
  7994   001EAE                     i2l4369:
  7995                           
  7996                           ;MCAL_Layer/GPIO/hal_gpio.c: 74:                 ((*((volatile uint8 *)(lat_register[_pi
      +                          n_config->port]))) |= ((uint8)1 << _pin_config->pin));
  7997   001EAE  5001               	movf	i2gpio_pin_write_logic@_pin_config^0,w,c
  7998   001EB0  6ED9               	movwf	fsr2l,c
  7999   001EB2  6ADA               	clrf	fsr2h,c
  8000   001EB4  30DF               	rrcf	223,w,c
  8001   001EB6  32E8               	rrcf	wreg,f,c
  8002   001EB8  32E8               	rrcf	wreg,f,c
  8003   001EBA  0B07               	andlw	7
  8004   001EBC  6E03               	movwf	??i2_gpio_pin_write_logic^0,c
  8005   001EBE  0E01               	movlw	1
  8006   001EC0  6E04               	movwf	(??i2_gpio_pin_write_logic+1)^0,c
  8007   001EC2  2A03               	incf	??i2_gpio_pin_write_logic^0,f,c
  8008   001EC4  EF66  F00F         	goto	i2u323_44
  8009   001EC8                     i2u323_45:
  8010   001EC8  90D8               	bcf	status,0,c
  8011   001ECA  3604               	rlcf	(??i2_gpio_pin_write_logic+1)^0,f,c
  8012   001ECC                     i2u323_44:
  8013   001ECC  2E03               	decfsz	??i2_gpio_pin_write_logic^0,f,c
  8014   001ECE  EF64  F00F         	goto	i2u323_45
  8015   001ED2  5001               	movf	i2gpio_pin_write_logic@_pin_config^0,w,c
  8016   001ED4  6ED9               	movwf	fsr2l,c
  8017   001ED6  6ADA               	clrf	fsr2h,c
  8018   001ED8  50DF               	movf	223,w,c
  8019   001EDA  0B07               	andlw	7
  8020   001EDC  0D02               	mullw	2
  8021   001EDE  50F3               	movf	243,w,c
  8022   001EE0  0F8A               	addlw	low _lat_register
  8023   001EE2  6ED9               	movwf	fsr2l,c
  8024   001EE4  6ADA               	clrf	fsr2h,c
  8025   001EE6  CFDE F005          	movff	postinc2,??i2_gpio_pin_write_logic+2
  8026   001EEA  CFDD F006          	movff	postdec2,??i2_gpio_pin_write_logic+3
  8027   001EEE  C005  FFD9         	movff	??i2_gpio_pin_write_logic+2,fsr2l
  8028   001EF2  C006  FFDA         	movff	??i2_gpio_pin_write_logic+3,fsr2h
  8029   001EF6  5004               	movf	(??i2_gpio_pin_write_logic+1)^0,w,c
  8030   001EF8  12DF               	iorwf	indf2,f,c
  8031                           
  8032                           ;MCAL_Layer/GPIO/hal_gpio.c: 75:                 break;
  8033   001EFA  EF94  F00F         	goto	i2l642
  8034   001EFE                     i2l4373:
  8035   001EFE  5002               	movf	i2gpio_pin_write_logic@logic^0,w,c
  8036   001F00  6E03               	movwf	??i2_gpio_pin_write_logic^0,c
  8037   001F02  6A04               	clrf	(??i2_gpio_pin_write_logic+1)^0,c
  8038                           
  8039                           ; Switch on 2 bytes has been partitioned into a top level switch of size 1, and 1 sub-sw
      +                          itches
  8040                           ; Switch size 1, requested type "simple"
  8041                           ; Number of cases is 1, Range of values is 0 to 0
  8042                           ; switch strategies available:
  8043                           ; Name         Instructions Cycles
  8044                           ; simple_byte            4     3 (average)
  8045                           ;	Chosen strategy is simple_byte
  8046   001F04  5004               	movf	(??i2_gpio_pin_write_logic+1)^0,w,c
  8047   001F06  0A00               	xorlw	0	; case 0
  8048   001F08  B4D8               	btfsc	status,2,c
  8049   001F0A  EF89  F00F         	goto	i2l6873
  8050   001F0E  EF2A  F00F         	goto	i2l4365
  8051   001F12                     i2l6873:
  8052                           
  8053                           ; Switch size 1, requested type "simple"
  8054                           ; Number of cases is 2, Range of values is 0 to 1
  8055                           ; switch strategies available:
  8056                           ; Name         Instructions Cycles
  8057                           ; simple_byte            7     4 (average)
  8058                           ;	Chosen strategy is simple_byte
  8059   001F12  5003               	movf	??i2_gpio_pin_write_logic^0,w,c
  8060   001F14  0A00               	xorlw	0	; case 0
  8061   001F16  B4D8               	btfsc	status,2,c
  8062   001F18  EF2C  F00F         	goto	i2l4367
  8063   001F1C  0A01               	xorlw	1	; case 1
  8064   001F1E  B4D8               	btfsc	status,2,c
  8065   001F20  EF57  F00F         	goto	i2l4369
  8066   001F24  EF2A  F00F         	goto	i2l4365
  8067   001F28                     i2l642:
  8068   001F28  0012               	return		;funcret
  8069   001F2A                     __end_ofi2_gpio_pin_write_logic:
  8070                           	callstack 0
  8071                           
  8072 ;; *************** function _INT2_ISR *****************
  8073 ;; Defined at:
  8074 ;;		line 565 in file "MCAL_Layer/Interrupts/mcal_external_interrupt.c"
  8075 ;; Parameters:    Size  Location     Type
  8076 ;;		None
  8077 ;; Auto vars:     Size  Location     Type
  8078 ;;		None
  8079 ;; Return value:  Size  Location     Type
  8080 ;;                  1    wreg      void 
  8081 ;; Registers used:
  8082 ;;		wreg, fsr2l, fsr2h, status,2, status,0, pcl, pclath, pclatu, tosl, prodl, prodh, cstack
  8083 ;; Tracked objects:
  8084 ;;		On entry : 0/0
  8085 ;;		On exit  : 0/0
  8086 ;;		Unchanged: 0/0
  8087 ;; Data sizes:     COMRAM   BANK0   BANK1   BANK2   BANK3   BANK4   BANK5   BANK6   BANK7   BANK8   BANK9  BANK10  BANK1
      +1  BANK12  BANK13  BANK14  BANK15
  8088 ;;      Params:         0       0       0       0       0       0       0       0       0       0       0       0       
      +0       0       0       0       0
  8089 ;;      Locals:         0       0       0       0       0       0       0       0       0       0       0       0       
      +0       0       0       0       0
  8090 ;;      Temps:          0       0       0       0       0       0       0       0       0       0       0       0       
      +0       0       0       0       0
  8091 ;;      Totals:         0       0       0       0       0       0       0       0       0       0       0       0       
      +0       0       0       0       0
  8092 ;;Total ram usage:        0 bytes
  8093 ;; Hardware stack levels used: 1
  8094 ;; Hardware stack levels required when called: 3
  8095 ;; This function calls:
  8096 ;;		NULL
  8097 ;;		_INT0_APP_ISR
  8098 ;;		_INT1_APP_ISR
  8099 ;;		_INT2_APP_ISR
  8100 ;; This function is called by:
  8101 ;;		_INTERRUPT_MANGER_
  8102 ;; This function uses a non-reentrant model
  8103 ;;
  8104                           
  8105                           	psect	text53
  8106   0030FA                     __ptext53:
  8107                           	callstack 0
  8108   0030FA                     _INT2_ISR:
  8109                           	callstack 20
  8110   0030FA                     
  8111                           ;MCAL_Layer/Interrupts/mcal_external_interrupt.c: 567:     (INTCON3bits.INT2IF = 0);
  8112   0030FA  92F0               	bcf	240,1,c	;volatile
  8113   0030FC                     
  8114                           ;MCAL_Layer/Interrupts/mcal_external_interrupt.c: 571:     if(Interrupt_handler_INT2)
  8115   0030FC  5047               	movf	_Interrupt_handler_INT2^0,w,c
  8116   0030FE  1048               	iorwf	(_Interrupt_handler_INT2+1)^0,w,c
  8117   003100  B4D8               	btfsc	status,2,c
  8118   003102  EF85  F018         	goto	i2u390_41
  8119   003106  EF87  F018         	goto	i2u390_40
  8120   00310A                     i2u390_41:
  8121   00310A  EF93  F018         	goto	i2l892
  8122   00310E                     i2u390_40:
  8123   00310E                     
  8124                           ;MCAL_Layer/Interrupts/mcal_external_interrupt.c: 572:         Interrupt_handler_INT2();
  8125   00310E  D802               	call	i2u391_48
  8126   003110  EF93  F018         	goto	i2u391_49
  8127   003114                     i2u391_48:
  8128   003114  0005               	push	
  8129   003116  6EFA               	movwf	pclath,c
  8130   003118  5047               	movf	_Interrupt_handler_INT2^0,w,c
  8131   00311A  6EFD               	movwf	tosl,c
  8132   00311C  5048               	movf	(_Interrupt_handler_INT2+1)^0,w,c
  8133   00311E  6EFE               	movwf	tosh,c
  8134   003120  6AFF               	clrf	tosu,c
  8135   003122  50FA               	movf	pclath,w,c
  8136   003124  0012               	return		;indir
  8137   003126                     i2u391_49:
  8138   003126                     i2l892:
  8139   003126  0012               	return		;funcret
  8140   003128                     __end_of_INT2_ISR:
  8141                           	callstack 0
  8142                           
  8143 ;; *************** function _INT1_ISR *****************
  8144 ;; Defined at:
  8145 ;;		line 553 in file "MCAL_Layer/Interrupts/mcal_external_interrupt.c"
  8146 ;; Parameters:    Size  Location     Type
  8147 ;;		None
  8148 ;; Auto vars:     Size  Location     Type
  8149 ;;		None
  8150 ;; Return value:  Size  Location     Type
  8151 ;;                  1    wreg      void 
  8152 ;; Registers used:
  8153 ;;		wreg, fsr2l, fsr2h, status,2, status,0, pcl, pclath, pclatu, tosl, prodl, prodh, cstack
  8154 ;; Tracked objects:
  8155 ;;		On entry : 0/0
  8156 ;;		On exit  : 0/0
  8157 ;;		Unchanged: 0/0
  8158 ;; Data sizes:     COMRAM   BANK0   BANK1   BANK2   BANK3   BANK4   BANK5   BANK6   BANK7   BANK8   BANK9  BANK10  BANK1
      +1  BANK12  BANK13  BANK14  BANK15
  8159 ;;      Params:         0       0       0       0       0       0       0       0       0       0       0       0       
      +0       0       0       0       0
  8160 ;;      Locals:         0       0       0       0       0       0       0       0       0       0       0       0       
      +0       0       0       0       0
  8161 ;;      Temps:          0       0       0       0       0       0       0       0       0       0       0       0       
      +0       0       0       0       0
  8162 ;;      Totals:         0       0       0       0       0       0       0       0       0       0       0       0       
      +0       0       0       0       0
  8163 ;;Total ram usage:        0 bytes
  8164 ;; Hardware stack levels used: 1
  8165 ;; Hardware stack levels required when called: 3
  8166 ;; This function calls:
  8167 ;;		NULL
  8168 ;;		_INT0_APP_ISR
  8169 ;;		_INT1_APP_ISR
  8170 ;;		_INT2_APP_ISR
  8171 ;; This function is called by:
  8172 ;;		_INTERRUPT_MANGER_
  8173 ;; This function uses a non-reentrant model
  8174 ;;
  8175                           
  8176                           	psect	text54
  8177   003128                     __ptext54:
  8178                           	callstack 0
  8179   003128                     _INT1_ISR:
  8180                           	callstack 20
  8181   003128                     
  8182                           ;MCAL_Layer/Interrupts/mcal_external_interrupt.c: 555:     (INTCON3bits.INT1IF = 0);
  8183   003128  90F0               	bcf	240,0,c	;volatile
  8184   00312A                     
  8185                           ;MCAL_Layer/Interrupts/mcal_external_interrupt.c: 559:     if(Interrupt_handler_INT1)
  8186   00312A  5049               	movf	_Interrupt_handler_INT1^0,w,c
  8187   00312C  104A               	iorwf	(_Interrupt_handler_INT1+1)^0,w,c
  8188   00312E  B4D8               	btfsc	status,2,c
  8189   003130  EF9C  F018         	goto	i2u388_41
  8190   003134  EF9E  F018         	goto	i2u388_40
  8191   003138                     i2u388_41:
  8192   003138  EFAA  F018         	goto	i2l888
  8193   00313C                     i2u388_40:
  8194   00313C                     
  8195                           ;MCAL_Layer/Interrupts/mcal_external_interrupt.c: 560:         Interrupt_handler_INT1();
  8196   00313C  D802               	call	i2u389_48
  8197   00313E  EFAA  F018         	goto	i2u389_49
  8198   003142                     i2u389_48:
  8199   003142  0005               	push	
  8200   003144  6EFA               	movwf	pclath,c
  8201   003146  5049               	movf	_Interrupt_handler_INT1^0,w,c
  8202   003148  6EFD               	movwf	tosl,c
  8203   00314A  504A               	movf	(_Interrupt_handler_INT1+1)^0,w,c
  8204   00314C  6EFE               	movwf	tosh,c
  8205   00314E  6AFF               	clrf	tosu,c
  8206   003150  50FA               	movf	pclath,w,c
  8207   003152  0012               	return		;indir
  8208   003154                     i2u389_49:
  8209   003154                     i2l888:
  8210   003154  0012               	return		;funcret
  8211   003156                     __end_of_INT1_ISR:
  8212                           	callstack 0
  8213                           
  8214 ;; *************** function _INT0_ISR *****************
  8215 ;; Defined at:
  8216 ;;		line 541 in file "MCAL_Layer/Interrupts/mcal_external_interrupt.c"
  8217 ;; Parameters:    Size  Location     Type
  8218 ;;		None
  8219 ;; Auto vars:     Size  Location     Type
  8220 ;;		None
  8221 ;; Return value:  Size  Location     Type
  8222 ;;                  1    wreg      void 
  8223 ;; Registers used:
  8224 ;;		wreg, fsr2l, fsr2h, status,2, status,0, pcl, pclath, pclatu, tosl, prodl, prodh, cstack
  8225 ;; Tracked objects:
  8226 ;;		On entry : 0/0
  8227 ;;		On exit  : 0/0
  8228 ;;		Unchanged: 0/0
  8229 ;; Data sizes:     COMRAM   BANK0   BANK1   BANK2   BANK3   BANK4   BANK5   BANK6   BANK7   BANK8   BANK9  BANK10  BANK1
      +1  BANK12  BANK13  BANK14  BANK15
  8230 ;;      Params:         0       0       0       0       0       0       0       0       0       0       0       0       
      +0       0       0       0       0
  8231 ;;      Locals:         0       0       0       0       0       0       0       0       0       0       0       0       
      +0       0       0       0       0
  8232 ;;      Temps:          0       0       0       0       0       0       0       0       0       0       0       0       
      +0       0       0       0       0
  8233 ;;      Totals:         0       0       0       0       0       0       0       0       0       0       0       0       
      +0       0       0       0       0
  8234 ;;Total ram usage:        0 bytes
  8235 ;; Hardware stack levels used: 1
  8236 ;; Hardware stack levels required when called: 3
  8237 ;; This function calls:
  8238 ;;		NULL
  8239 ;;		_INT0_APP_ISR
  8240 ;;		_INT1_APP_ISR
  8241 ;;		_INT2_APP_ISR
  8242 ;; This function is called by:
  8243 ;;		_INTERRUPT_MANGER_
  8244 ;; This function uses a non-reentrant model
  8245 ;;
  8246                           
  8247                           	psect	text55
  8248   003156                     __ptext55:
  8249                           	callstack 0
  8250   003156                     _INT0_ISR:
  8251                           	callstack 20
  8252   003156                     
  8253                           ;MCAL_Layer/Interrupts/mcal_external_interrupt.c: 543:     (INTCONbits.INT0IF = 0);
  8254   003156  92F2               	bcf	242,1,c	;volatile
  8255   003158                     
  8256                           ;MCAL_Layer/Interrupts/mcal_external_interrupt.c: 547:     if(Interrupt_handler_INT0)
  8257   003158  504B               	movf	_Interrupt_handler_INT0^0,w,c
  8258   00315A  104C               	iorwf	(_Interrupt_handler_INT0+1)^0,w,c
  8259   00315C  B4D8               	btfsc	status,2,c
  8260   00315E  EFB3  F018         	goto	i2u386_41
  8261   003162  EFB5  F018         	goto	i2u386_40
  8262   003166                     i2u386_41:
  8263   003166  EFC1  F018         	goto	i2l884
  8264   00316A                     i2u386_40:
  8265   00316A                     
  8266                           ;MCAL_Layer/Interrupts/mcal_external_interrupt.c: 548:         Interrupt_handler_INT0();
  8267   00316A  D802               	call	i2u387_48
  8268   00316C  EFC1  F018         	goto	i2u387_49
  8269   003170                     i2u387_48:
  8270   003170  0005               	push	
  8271   003172  6EFA               	movwf	pclath,c
  8272   003174  504B               	movf	_Interrupt_handler_INT0^0,w,c
  8273   003176  6EFD               	movwf	tosl,c
  8274   003178  504C               	movf	(_Interrupt_handler_INT0+1)^0,w,c
  8275   00317A  6EFE               	movwf	tosh,c
  8276   00317C  6AFF               	clrf	tosu,c
  8277   00317E  50FA               	movf	pclath,w,c
  8278   003180  0012               	return		;indir
  8279   003182                     i2u387_49:
  8280   003182                     i2l884:
  8281   003182  0012               	return		;funcret
  8282   003184                     __end_of_INT0_ISR:
  8283                           	callstack 0
  8284                           
  8285 ;; *************** function _INT1_APP_ISR *****************
  8286 ;; Defined at:
  8287 ;;		line 343 in file "ECU_Layer/ecu_layer_initialize.c"
  8288 ;; Parameters:    Size  Location     Type
  8289 ;;		None
  8290 ;; Auto vars:     Size  Location     Type
  8291 ;;		None
  8292 ;; Return value:  Size  Location     Type
  8293 ;;                  1    wreg      void 
  8294 ;; Registers used:
  8295 ;;		None
  8296 ;; Tracked objects:
  8297 ;;		On entry : 0/0
  8298 ;;		On exit  : 0/0
  8299 ;;		Unchanged: 0/0
  8300 ;; Data sizes:     COMRAM   BANK0   BANK1   BANK2   BANK3   BANK4   BANK5   BANK6   BANK7   BANK8   BANK9  BANK10  BANK1
      +1  BANK12  BANK13  BANK14  BANK15
  8301 ;;      Params:         0       0       0       0       0       0       0       0       0       0       0       0       
      +0       0       0       0       0
  8302 ;;      Locals:         0       0       0       0       0       0       0       0       0       0       0       0       
      +0       0       0       0       0
  8303 ;;      Temps:          0       0       0       0       0       0       0       0       0       0       0       0       
      +0       0       0       0       0
  8304 ;;      Totals:         0       0       0       0       0       0       0       0       0       0       0       0       
      +0       0       0       0       0
  8305 ;;Total ram usage:        0 bytes
  8306 ;; Hardware stack levels used: 1
  8307 ;; This function calls:
  8308 ;;		Nothing
  8309 ;; This function is called by:
  8310 ;;		_INT0_ISR
  8311 ;;		_INT1_ISR
  8312 ;;		_INT2_ISR
  8313 ;; This function uses a non-reentrant model
  8314 ;;
  8315                           
  8316                           	psect	text56
  8317   003232                     __ptext56:
  8318                           	callstack 0
  8319   003232                     _INT1_APP_ISR:
  8320                           	callstack 22
  8321   003232  0012               	return		;funcret
  8322   003234                     __end_of_INT1_APP_ISR:
  8323                           	callstack 0
  8324                           
  8325 ;; *************** function _INT0_APP_ISR *****************
  8326 ;; Defined at:
  8327 ;;		line 338 in file "ECU_Layer/ecu_layer_initialize.c"
  8328 ;; Parameters:    Size  Location     Type
  8329 ;;		None
  8330 ;; Auto vars:     Size  Location     Type
  8331 ;;		None
  8332 ;; Return value:  Size  Location     Type
  8333 ;;                  1    wreg      void 
  8334 ;; Registers used:
  8335 ;;		None
  8336 ;; Tracked objects:
  8337 ;;		On entry : 0/0
  8338 ;;		On exit  : 0/0
  8339 ;;		Unchanged: 0/0
  8340 ;; Data sizes:     COMRAM   BANK0   BANK1   BANK2   BANK3   BANK4   BANK5   BANK6   BANK7   BANK8   BANK9  BANK10  BANK1
      +1  BANK12  BANK13  BANK14  BANK15
  8341 ;;      Params:         0       0       0       0       0       0       0       0       0       0       0       0       
      +0       0       0       0       0
  8342 ;;      Locals:         0       0       0       0       0       0       0       0       0       0       0       0       
      +0       0       0       0       0
  8343 ;;      Temps:          0       0       0       0       0       0       0       0       0       0       0       0       
      +0       0       0       0       0
  8344 ;;      Totals:         0       0       0       0       0       0       0       0       0       0       0       0       
      +0       0       0       0       0
  8345 ;;Total ram usage:        0 bytes
  8346 ;; Hardware stack levels used: 1
  8347 ;; This function calls:
  8348 ;;		Nothing
  8349 ;; This function is called by:
  8350 ;;		_INT0_ISR
  8351 ;;		_INT1_ISR
  8352 ;;		_INT2_ISR
  8353 ;; This function uses a non-reentrant model
  8354 ;;
  8355                           
  8356                           	psect	text57
  8357   003234                     __ptext57:
  8358                           	callstack 0
  8359   003234                     _INT0_APP_ISR:
  8360                           	callstack 22
  8361   003234  0012               	return		;funcret
  8362   003236                     __end_of_INT0_APP_ISR:
  8363                           	callstack 0
  8364                           
  8365 ;; *************** function _INT2_APP_ISR *****************
  8366 ;; Defined at:
  8367 ;;		line 348 in file "ECU_Layer/ecu_layer_initialize.c"
  8368 ;; Parameters:    Size  Location     Type
  8369 ;;		None
  8370 ;; Auto vars:     Size  Location     Type
  8371 ;;		None
  8372 ;; Return value:  Size  Location     Type
  8373 ;;                  1    wreg      void 
  8374 ;; Registers used:
  8375 ;;		wreg, fsr2l, fsr2h, status,2, status,0, prodl, prodh, cstack
  8376 ;; Tracked objects:
  8377 ;;		On entry : 0/0
  8378 ;;		On exit  : 0/0
  8379 ;;		Unchanged: 0/0
  8380 ;; Data sizes:     COMRAM   BANK0   BANK1   BANK2   BANK3   BANK4   BANK5   BANK6   BANK7   BANK8   BANK9  BANK10  BANK1
      +1  BANK12  BANK13  BANK14  BANK15
  8381 ;;      Params:         0       0       0       0       0       0       0       0       0       0       0       0       
      +0       0       0       0       0
  8382 ;;      Locals:         0       0       0       0       0       0       0       0       0       0       0       0       
      +0       0       0       0       0
  8383 ;;      Temps:          0       0       0       0       0       0       0       0       0       0       0       0       
      +0       0       0       0       0
  8384 ;;      Totals:         0       0       0       0       0       0       0       0       0       0       0       0       
      +0       0       0       0       0
  8385 ;;Total ram usage:        0 bytes
  8386 ;; Hardware stack levels used: 1
  8387 ;; Hardware stack levels required when called: 2
  8388 ;; This function calls:
  8389 ;;		_led_turn_toggle
  8390 ;; This function is called by:
  8391 ;;		_INT0_ISR
  8392 ;;		_INT1_ISR
  8393 ;;		_INT2_ISR
  8394 ;; This function uses a non-reentrant model
  8395 ;;
  8396                           
  8397                           	psect	text58
  8398   00321A                     __ptext58:
  8399                           	callstack 0
  8400   00321A                     _INT2_APP_ISR:
  8401                           	callstack 20
  8402   00321A                     
  8403                           ;ECU_Layer/ecu_layer_initialize.c: 350:     led_turn_toggle(&led2);
  8404   00321A  0E6B               	movlw	low _led2
  8405   00321C  6E06               	movwf	led_turn_toggle@led^0,c
  8406   00321E  EC48  F016         	call	_led_turn_toggle	;wreg free
  8407   003222  0012               	return		;funcret
  8408   003224                     __end_of_INT2_APP_ISR:
  8409                           	callstack 0
  8410                           
  8411 ;; *************** function _led_turn_toggle *****************
  8412 ;; Defined at:
  8413 ;;		line 86 in file "ECU_Layer/LED/ecu_led.c"
  8414 ;; Parameters:    Size  Location     Type
  8415 ;;  led             1    5[COMRAM] PTR const struct .
  8416 ;;		 -> led2(1), 
  8417 ;; Auto vars:     Size  Location     Type
  8418 ;;  pin_obj         1    7[COMRAM] struct .
  8419 ;;  ret             1    0        unsigned char 
  8420 ;; Return value:  Size  Location     Type
  8421 ;;                  1    wreg      unsigned char 
  8422 ;; Registers used:
  8423 ;;		wreg, fsr2l, fsr2h, status,2, status,0, prodl, prodh, cstack
  8424 ;; Tracked objects:
  8425 ;;		On entry : 0/0
  8426 ;;		On exit  : 0/0
  8427 ;;		Unchanged: 0/0
  8428 ;; Data sizes:     COMRAM   BANK0   BANK1   BANK2   BANK3   BANK4   BANK5   BANK6   BANK7   BANK8   BANK9  BANK10  BANK1
      +1  BANK12  BANK13  BANK14  BANK15
  8429 ;;      Params:         1       0       0       0       0       0       0       0       0       0       0       0       
      +0       0       0       0       0
  8430 ;;      Locals:         1       0       0       0       0       0       0       0       0       0       0       0       
      +0       0       0       0       0
  8431 ;;      Temps:          1       0       0       0       0       0       0       0       0       0       0       0       
      +0       0       0       0       0
  8432 ;;      Totals:         3       0       0       0       0       0       0       0       0       0       0       0       
      +0       0       0       0       0
  8433 ;;Total ram usage:        3 bytes
  8434 ;; Hardware stack levels used: 1
  8435 ;; Hardware stack levels required when called: 1
  8436 ;; This function calls:
  8437 ;;		i2_gpio_pin_toogle_logic
  8438 ;; This function is called by:
  8439 ;;		_INT2_APP_ISR
  8440 ;; This function uses a non-reentrant model
  8441 ;;
  8442                           
  8443                           	psect	text59
  8444   002C90                     __ptext59:
  8445                           	callstack 0
  8446   002C90                     _led_turn_toggle:
  8447                           	callstack 20
  8448   002C90                     
  8449                           ;ECU_Layer/LED/ecu_led.c: 89:     pin_config_t pin_obj = {.port = led->port_name
  8450   002C90  C055  F008         	movff	led_turn_toggle@F3494,led_turn_toggle@pin_obj
  8451   002C94  5006               	movf	led_turn_toggle@led^0,w,c
  8452   002C96  6ED9               	movwf	fsr2l,c
  8453   002C98  6ADA               	clrf	fsr2h,c
  8454   002C9A  50DF               	movf	223,w,c
  8455   002C9C  0B0F               	andlw	15
  8456   002C9E  6E07               	movwf	??_led_turn_toggle^0,c
  8457   002CA0  5008               	movf	led_turn_toggle@pin_obj^0,w,c
  8458   002CA2  1807               	xorwf	??_led_turn_toggle^0,w,c
  8459   002CA4  0BF8               	andlw	-8
  8460   002CA6  1807               	xorwf	??_led_turn_toggle^0,w,c
  8461   002CA8  6E08               	movwf	led_turn_toggle@pin_obj^0,c
  8462   002CAA  5006               	movf	led_turn_toggle@led^0,w,c
  8463   002CAC  6ED9               	movwf	fsr2l,c
  8464   002CAE  6ADA               	clrf	fsr2h,c
  8465   002CB0  38DF               	swapf	223,w,c
  8466   002CB2  0B07               	andlw	7
  8467   002CB4  6E07               	movwf	??_led_turn_toggle^0,c
  8468   002CB6  4607               	rlncf	??_led_turn_toggle^0,f,c
  8469   002CB8  4607               	rlncf	??_led_turn_toggle^0,f,c
  8470   002CBA  4607               	rlncf	??_led_turn_toggle^0,f,c
  8471   002CBC  5008               	movf	led_turn_toggle@pin_obj^0,w,c
  8472   002CBE  1807               	xorwf	??_led_turn_toggle^0,w,c
  8473   002CC0  0BC7               	andlw	-57
  8474   002CC2  1807               	xorwf	??_led_turn_toggle^0,w,c
  8475   002CC4  6E08               	movwf	led_turn_toggle@pin_obj^0,c
  8476   002CC6  9C08               	bcf	led_turn_toggle@pin_obj^0,6,c
  8477   002CC8  5006               	movf	led_turn_toggle@led^0,w,c
  8478   002CCA  6ED9               	movwf	fsr2l,c
  8479   002CCC  6ADA               	clrf	fsr2h,c
  8480   002CCE  AEDF               	btfss	indf2,7,c
  8481   002CD0  D002               	bra	i2u331_45
  8482   002CD2  8E08               	bsf	led_turn_toggle@pin_obj^0,7,c
  8483   002CD4  D001               	bra	i2u331_47
  8484   002CD6                     i2u331_45:
  8485   002CD6  9E08               	bcf	led_turn_toggle@pin_obj^0,7,c
  8486   002CD8                     i2u331_47:
  8487   002CD8                     
  8488                           ;ECU_Layer/LED/ecu_led.c: 93:     if(((void*)0) == led)
  8489   002CD8  5006               	movf	led_turn_toggle@led^0,w,c
  8490   002CDA  A4D8               	btfss	status,2,c
  8491   002CDC  EF72  F016         	goto	i2u332_41
  8492   002CE0  EF74  F016         	goto	i2u332_40
  8493   002CE4                     i2u332_41:
  8494   002CE4  EF76  F016         	goto	i2l4431
  8495   002CE8                     i2u332_40:
  8496   002CE8  EF7A  F016         	goto	i2l309
  8497   002CEC                     i2l4431:
  8498                           
  8499                           ;ECU_Layer/LED/ecu_led.c: 96:     {;ECU_Layer/LED/ecu_led.c: 97:         gpio_pin_toogle
      +                          _logic(&pin_obj);
  8500   002CEC  0E08               	movlw	low led_turn_toggle@pin_obj
  8501   002CEE  6E01               	movwf	i2gpio_pin_toogle_logic@_pin_config^0,c
  8502   002CF0  EC17  F013         	call	i2_gpio_pin_toogle_logic	;wreg free
  8503   002CF4                     i2l309:
  8504   002CF4  0012               	return		;funcret
  8505   002CF6                     __end_of_led_turn_toggle:
  8506                           	callstack 0
  8507                           
  8508 ;; *************** function i2_gpio_pin_toogle_logic *****************
  8509 ;; Defined at:
  8510 ;;		line 108 in file "MCAL_Layer/GPIO/hal_gpio.c"
  8511 ;; Parameters:    Size  Location     Type
  8512 ;;  _pin_config     1    0[COMRAM] PTR const struct .
  8513 ;;		 -> motor_1(2), relay_turn_toggle@pin_obj(1), led_turn_toggle@pin_obj(1), 
  8514 ;; Auto vars:     Size  Location     Type
  8515 ;;  ret             1    0        unsigned char 
  8516 ;; Return value:  Size  Location     Type
  8517 ;;                  1    wreg      unsigned char 
  8518 ;; Registers used:
  8519 ;;		wreg, fsr2l, fsr2h, status,2, status,0, prodl, prodh
  8520 ;; Tracked objects:
  8521 ;;		On entry : 0/0
  8522 ;;		On exit  : 0/0
  8523 ;;		Unchanged: 0/0
  8524 ;; Data sizes:     COMRAM   BANK0   BANK1   BANK2   BANK3   BANK4   BANK5   BANK6   BANK7   BANK8   BANK9  BANK10  BANK1
      +1  BANK12  BANK13  BANK14  BANK15
  8525 ;;      Params:         1       0       0       0       0       0       0       0       0       0       0       0       
      +0       0       0       0       0
  8526 ;;      Locals:         0       0       0       0       0       0       0       0       0       0       0       0       
      +0       0       0       0       0
  8527 ;;      Temps:          4       0       0       0       0       0       0       0       0       0       0       0       
      +0       0       0       0       0
  8528 ;;      Totals:         5       0       0       0       0       0       0       0       0       0       0       0       
      +0       0       0       0       0
  8529 ;;Total ram usage:        5 bytes
  8530 ;; Hardware stack levels used: 1
  8531 ;; This function calls:
  8532 ;;		Nothing
  8533 ;; This function is called by:
  8534 ;;		_led_turn_toggle
  8535 ;; This function uses a non-reentrant model
  8536 ;;
  8537                           
  8538                           	psect	text60
  8539   00262E                     __ptext60:
  8540                           	callstack 0
  8541   00262E                     i2_gpio_pin_toogle_logic:
  8542                           	callstack 20
  8543   00262E                     
  8544                           ;MCAL_Layer/GPIO/hal_gpio.c: 111:     if((_pin_config == ((void*)0)) || (_pin_config->pi
      +                          n > 8 -1))
  8545   00262E  5001               	movf	i2gpio_pin_toogle_logic@_pin_config^0,w,c
  8546   002630  B4D8               	btfsc	status,2,c
  8547   002632  EF1D  F013         	goto	i2u324_41
  8548   002636  EF1F  F013         	goto	i2u324_40
  8549   00263A                     i2u324_41:
  8550   00263A  EF2F  F013         	goto	i2l4383
  8551   00263E                     i2u324_40:
  8552   00263E  5001               	movf	i2gpio_pin_toogle_logic@_pin_config^0,w,c
  8553   002640  6ED9               	movwf	fsr2l,c
  8554   002642  6ADA               	clrf	fsr2h,c
  8555   002644  30DF               	rrcf	223,w,c
  8556   002646  32E8               	rrcf	wreg,f,c
  8557   002648  32E8               	rrcf	wreg,f,c
  8558   00264A  0B07               	andlw	7
  8559   00264C  6E02               	movwf	??i2_gpio_pin_toogle_logic^0,c
  8560   00264E  0E07               	movlw	7
  8561   002650  6402               	cpfsgt	??i2_gpio_pin_toogle_logic^0,c
  8562   002652  EF2D  F013         	goto	i2u325_41
  8563   002656  EF2F  F013         	goto	i2u325_40
  8564   00265A                     i2u325_41:
  8565   00265A  EF31  F013         	goto	i2l4385
  8566   00265E                     i2u325_40:
  8567   00265E                     i2l4383:
  8568   00265E  EF57  F013         	goto	i2l656
  8569   002662                     i2l4385:
  8570                           
  8571                           ;MCAL_Layer/GPIO/hal_gpio.c: 114:     {;MCAL_Layer/GPIO/hal_gpio.c: 115:         ((*((vo
      +                          latile uint8 *)(lat_register[_pin_config->port]))) ^= ((uint8)1 << _pin_config->pin));
  8572   002662  5001               	movf	i2gpio_pin_toogle_logic@_pin_config^0,w,c
  8573   002664  6ED9               	movwf	fsr2l,c
  8574   002666  6ADA               	clrf	fsr2h,c
  8575   002668  30DF               	rrcf	223,w,c
  8576   00266A  32E8               	rrcf	wreg,f,c
  8577   00266C  32E8               	rrcf	wreg,f,c
  8578   00266E  0B07               	andlw	7
  8579   002670  6E02               	movwf	??i2_gpio_pin_toogle_logic^0,c
  8580   002672  0E01               	movlw	1
  8581   002674  6E03               	movwf	(??i2_gpio_pin_toogle_logic+1)^0,c
  8582   002676  2A02               	incf	??i2_gpio_pin_toogle_logic^0,f,c
  8583   002678  EF40  F013         	goto	i2u326_44
  8584   00267C                     i2u326_45:
  8585   00267C  90D8               	bcf	status,0,c
  8586   00267E  3603               	rlcf	(??i2_gpio_pin_toogle_logic+1)^0,f,c
  8587   002680                     i2u326_44:
  8588   002680  2E02               	decfsz	??i2_gpio_pin_toogle_logic^0,f,c
  8589   002682  EF3E  F013         	goto	i2u326_45
  8590   002686  5001               	movf	i2gpio_pin_toogle_logic@_pin_config^0,w,c
  8591   002688  6ED9               	movwf	fsr2l,c
  8592   00268A  6ADA               	clrf	fsr2h,c
  8593   00268C  50DF               	movf	223,w,c
  8594   00268E  0B07               	andlw	7
  8595   002690  0D02               	mullw	2
  8596   002692  50F3               	movf	243,w,c
  8597   002694  0F8A               	addlw	low _lat_register
  8598   002696  6ED9               	movwf	fsr2l,c
  8599   002698  6ADA               	clrf	fsr2h,c
  8600   00269A  CFDE F004          	movff	postinc2,??i2_gpio_pin_toogle_logic+2
  8601   00269E  CFDD F005          	movff	postdec2,??i2_gpio_pin_toogle_logic+3
  8602   0026A2  C004  FFD9         	movff	??i2_gpio_pin_toogle_logic+2,fsr2l
  8603   0026A6  C005  FFDA         	movff	??i2_gpio_pin_toogle_logic+3,fsr2h
  8604   0026AA  5003               	movf	(??i2_gpio_pin_toogle_logic+1)^0,w,c
  8605   0026AC  1ADF               	xorwf	indf2,f,c
  8606   0026AE                     i2l656:
  8607   0026AE  0012               	return		;funcret
  8608   0026B0                     __end_ofi2_gpio_pin_toogle_logic:
  8609                           	callstack 0
  8610                           
  8611 ;; *************** function _ADC_ISR *****************
  8612 ;; Defined at:
  8613 ;;		line 204 in file "MCAL_Layer/ADC/hal_adc.c"
  8614 ;; Parameters:    Size  Location     Type
  8615 ;;		None
  8616 ;; Auto vars:     Size  Location     Type
  8617 ;;		None
  8618 ;; Return value:  Size  Location     Type
  8619 ;;                  1    wreg      void 
  8620 ;; Registers used:
  8621 ;;		None
  8622 ;; Tracked objects:
  8623 ;;		On entry : 0/0
  8624 ;;		On exit  : 0/0
  8625 ;;		Unchanged: 0/0
  8626 ;; Data sizes:     COMRAM   BANK0   BANK1   BANK2   BANK3   BANK4   BANK5   BANK6   BANK7   BANK8   BANK9  BANK10  BANK1
      +1  BANK12  BANK13  BANK14  BANK15
  8627 ;;      Params:         0       0       0       0       0       0       0       0       0       0       0       0       
      +0       0       0       0       0
  8628 ;;      Locals:         0       0       0       0       0       0       0       0       0       0       0       0       
      +0       0       0       0       0
  8629 ;;      Temps:          0       0       0       0       0       0       0       0       0       0       0       0       
      +0       0       0       0       0
  8630 ;;      Totals:         0       0       0       0       0       0       0       0       0       0       0       0       
      +0       0       0       0       0
  8631 ;;Total ram usage:        0 bytes
  8632 ;; Hardware stack levels used: 1
  8633 ;; This function calls:
  8634 ;;		Nothing
  8635 ;; This function is called by:
  8636 ;;		_INTERRUPT_MANGER_
  8637 ;; This function uses a non-reentrant model
  8638 ;;
  8639                           
  8640                           	psect	text61
  8641   003224                     __ptext61:
  8642                           	callstack 0
  8643   003224                     _ADC_ISR:
  8644                           	callstack 23
  8645   003224                     
  8646                           ;MCAL_Layer/ADC/hal_adc.c: 206:     (PIR1bits.ADIF = 0);
  8647   003224  9C9E               	bcf	158,6,c	;volatile
  8648   003226  0012               	return		;funcret
  8649   003228                     __end_of_ADC_ISR:
  8650                           	callstack 0
  8651                           
  8652                           	psect	text62
  8653   000000                     __ptext62:
  8654                           	callstack 0
  8655   000000                     
  8656                           	psect	rparam
  8657   000000                     
  8658                           	psect	temp
  8659   00006E                     btemp:
  8660                           	callstack 0
  8661   00006E                     	ds	1
  8662   000000                     int$flags	set	btemp
  8663   000000                     wtemp8	set	btemp+1
  8664   000000                     ttemp5	set	btemp+1
  8665   000000                     ttemp6	set	btemp+4
  8666   000000                     ttemp7	set	btemp+8
  8667                           
  8668                           	psect	config
  8669                           
  8670                           ; Padding undefined space
  8671   300000                     	org	3145728
  8672   300000  FF                 	db	255
  8673                           
  8674                           ;Config register CONFIG1H @ 0x300001
  8675                           ;	Oscillator Selection bits
  8676                           ;	OSC = HS, HS oscillator
  8677                           ;	Fail-Safe Clock Monitor Enable bit
  8678                           ;	FCMEN = OFF, Fail-Safe Clock Monitor disabled
  8679                           ;	Internal/External Oscillator Switchover bit
  8680                           ;	IESO = OFF, Oscillator Switchover mode disabled
  8681   300001                     	org	3145729
  8682   300001  02                 	db	2
  8683                           
  8684                           ;Config register CONFIG2L @ 0x300002
  8685                           ;	Power-up Timer Enable bit
  8686                           ;	PWRT = OFF, PWRT disabled
  8687                           ;	Brown-out Reset Enable bits
  8688                           ;	BOREN = OFF, Brown-out Reset disabled in hardware and software
  8689                           ;	Brown Out Reset Voltage bits
  8690                           ;	BORV = 1, 
  8691   300002                     	org	3145730
  8692   300002  09                 	db	9
  8693                           
  8694                           ;Config register CONFIG2H @ 0x300003
  8695                           ;	Watchdog Timer Enable bit
  8696                           ;	WDT = OFF, WDT disabled (control is placed on the SWDTEN bit)
  8697                           ;	Watchdog Timer Postscale Select bits
  8698                           ;	WDTPS = 32768, 1:32768
  8699   300003                     	org	3145731
  8700   300003  1E                 	db	30
  8701                           
  8702                           ; Padding undefined space
  8703   300004                     	org	3145732
  8704   300004  FF                 	db	255
  8705                           
  8706                           ;Config register CONFIG3H @ 0x300005
  8707                           ;	CCP2 MUX bit
  8708                           ;	CCP2MX = PORTC, CCP2 input/output is multiplexed with RC1
  8709                           ;	PORTB A/D Enable bit
  8710                           ;	PBADEN = OFF, PORTB<4:0> pins are configured as digital I/O on Reset
  8711                           ;	Low-Power Timer1 Oscillator Enable bit
  8712                           ;	LPT1OSC = OFF, Timer1 configured for higher power operation
  8713                           ;	MCLR Pin Enable bit
  8714                           ;	MCLRE = ON, MCLR pin enabled; RE3 input pin disabled
  8715   300005                     	org	3145733
  8716   300005  81                 	db	129
  8717                           
  8718                           ;Config register CONFIG4L @ 0x300006
  8719                           ;	Stack Full/Underflow Reset Enable bit
  8720                           ;	STVREN = ON, Stack full/underflow will cause Reset
  8721                           ;	Single-Supply ICSP Enable bit
  8722                           ;	LVP = OFF, Single-Supply ICSP disabled
  8723                           ;	Extended Instruction Set Enable bit
  8724                           ;	XINST = OFF, Instruction set extension and Indexed Addressing mode disabled (Legacy mo
      +                          de)
  8725                           ;	Background Debugger Enable bit
  8726                           ;	DEBUG = 0x1, unprogrammed default
  8727   300006                     	org	3145734
  8728   300006  81                 	db	129
  8729                           
  8730                           ; Padding undefined space
  8731   300007                     	org	3145735
  8732   300007  FF                 	db	255
  8733                           
  8734                           ;Config register CONFIG5L @ 0x300008
  8735                           ;	Code Protection bit
  8736                           ;	CP0 = OFF, Block 0 (000800-003FFFh) not code-protected
  8737                           ;	Code Protection bit
  8738                           ;	CP1 = OFF, Block 1 (004000-007FFFh) not code-protected
  8739                           ;	Code Protection bit
  8740                           ;	CP2 = OFF, Block 2 (008000-00BFFFh) not code-protected
  8741                           ;	Code Protection bit
  8742                           ;	CP3 = OFF, Block 3 (00C000-00FFFFh) not code-protected
  8743   300008                     	org	3145736
  8744   300008  0F                 	db	15
  8745                           
  8746                           ;Config register CONFIG5H @ 0x300009
  8747                           ;	Boot Block Code Protection bit
  8748                           ;	CPB = OFF, Boot block (000000-0007FFh) not code-protected
  8749                           ;	Data EEPROM Code Protection bit
  8750                           ;	CPD = OFF, Data EEPROM not code-protected
  8751   300009                     	org	3145737
  8752   300009  C0                 	db	192
  8753                           
  8754                           ;Config register CONFIG6L @ 0x30000A
  8755                           ;	Write Protection bit
  8756                           ;	WRT0 = OFF, Block 0 (000800-003FFFh) not write-protected
  8757                           ;	Write Protection bit
  8758                           ;	WRT1 = OFF, Block 1 (004000-007FFFh) not write-protected
  8759                           ;	Write Protection bit
  8760                           ;	WRT2 = OFF, Block 2 (008000-00BFFFh) not write-protected
  8761                           ;	Write Protection bit
  8762                           ;	WRT3 = OFF, Block 3 (00C000-00FFFFh) not write-protected
  8763   30000A                     	org	3145738
  8764   30000A  0F                 	db	15
  8765                           
  8766                           ;Config register CONFIG6H @ 0x30000B
  8767                           ;	Configuration Register Write Protection bit
  8768                           ;	WRTC = OFF, Configuration registers (300000-3000FFh) not write-protected
  8769                           ;	Boot Block Write Protection bit
  8770                           ;	WRTB = OFF, Boot Block (000000-0007FFh) not write-protected
  8771                           ;	Data EEPROM Write Protection bit
  8772                           ;	WRTD = OFF, Data EEPROM not write-protected
  8773   30000B                     	org	3145739
  8774   30000B  E0                 	db	224
  8775                           
  8776                           ;Config register CONFIG7L @ 0x30000C
  8777                           ;	Table Read Protection bit
  8778                           ;	EBTR0 = OFF, Block 0 (000800-003FFFh) not protected from table reads executed in other
      +                           blocks
  8779                           ;	Table Read Protection bit
  8780                           ;	EBTR1 = OFF, Block 1 (004000-007FFFh) not protected from table reads executed in other
      +                           blocks
  8781                           ;	Table Read Protection bit
  8782                           ;	EBTR2 = OFF, Block 2 (008000-00BFFFh) not protected from table reads executed in other
      +                           blocks
  8783                           ;	Table Read Protection bit
  8784                           ;	EBTR3 = OFF, Block 3 (00C000-00FFFFh) not protected from table reads executed in other
      +                           blocks
  8785   30000C                     	org	3145740
  8786   30000C  0F                 	db	15
  8787                           
  8788                           ;Config register CONFIG7H @ 0x30000D
  8789                           ;	Boot Block Table Read Protection bit
  8790                           ;	EBTRB = OFF, Boot Block (000000-0007FFh) not protected from table reads executed in ot
      +                          her blocks
  8791   30000D                     	org	3145741
  8792   30000D  40                 	db	64
  8793                           tosu	equ	0xFFF
  8794                           tosh	equ	0xFFE
  8795                           tosl	equ	0xFFD
  8796                           stkptr	equ	0xFFC
  8797                           pclatu	equ	0xFFB
  8798                           pclath	equ	0xFFA
  8799                           pcl	equ	0xFF9
  8800                           tblptru	equ	0xFF8
  8801                           tblptrh	equ	0xFF7
  8802                           tblptrl	equ	0xFF6
  8803                           tablat	equ	0xFF5
  8804                           prodh	equ	0xFF4
  8805                           prodl	equ	0xFF3
  8806                           indf0	equ	0xFEF
  8807                           postinc0	equ	0xFEE
  8808                           postdec0	equ	0xFED
  8809                           preinc0	equ	0xFEC
  8810                           plusw0	equ	0xFEB
  8811                           fsr0h	equ	0xFEA
  8812                           fsr0l	equ	0xFE9
  8813                           wreg	equ	0xFE8
  8814                           indf1	equ	0xFE7
  8815                           postinc1	equ	0xFE6
  8816                           postdec1	equ	0xFE5
  8817                           preinc1	equ	0xFE4
  8818                           plusw1	equ	0xFE3
  8819                           fsr1h	equ	0xFE2
  8820                           fsr1l	equ	0xFE1
  8821                           bsr	equ	0xFE0
  8822                           indf2	equ	0xFDF
  8823                           postinc2	equ	0xFDE
  8824                           postdec2	equ	0xFDD
  8825                           preinc2	equ	0xFDC
  8826                           plusw2	equ	0xFDB
  8827                           fsr2h	equ	0xFDA
  8828                           fsr2l	equ	0xFD9
  8829                           status	equ	0xFD8

Data Sizes:
    Strings     174
    Constant    16
    Data        143
    BSS         85
    Persistent  0
    Stack       0

Auto Spaces:
    Space          Size  Autos    Used
    COMRAM          126     48     109
    BANK0           128      3     128
    BANK1           256     20      62
    BANK2           256      0       0
    BANK3           256      0       0
    BANK4           256      0       0
    BANK5           256      0       0
    BANK6           256      0       0
    BANK7           256      0       0
    BANK8           256      0       0
    BANK9           256      0       0
    BANK10          256      0       0
    BANK11          256      0       0
    BANK12          256      0       0
    BANK13          256      0       0
    BANK14          256      0       0
    BANK15          128      0       0

Pointer List with Targets:

    adc_1$ADC_INTERRUPT_HANDLER	PTR FTN()void  size(2) Largest target is 1
		 -> NULL(), 

    adc_2$ADC_INTERRUPT_HANDLER	PTR FTN()void  size(2) Largest target is 1
		 -> NULL(), 

    adc_3$ADC_INTERRUPT_HANDLER	PTR FTN()void  size(2) Largest target is 1
		 -> NULL(), 

    ADC_get_conversion_result@_adc$ADC_INTERRUPT_HANDLER	PTR FTN()void  size(2) Largest target is 1
		 -> NULL(), 

    ADC_initialize@_adc$ADC_INTERRUPT_HANDLER	PTR FTN()void  size(2) Largest target is 1
		 -> NULL(), 

    ADC_INTERRUPT_HANDLER	PTR FTN()void  size(2) Largest target is 1
		 -> NULL(), 

    ADC_select_channel@_adc$ADC_INTERRUPT_HANDLER	PTR FTN()void  size(2) Largest target is 1
		 -> NULL(), 

    convert_byte_to_string@str	PTR unsigned char  size(1) Largest target is 6
		 -> result_txt(BANK0[6]), 

    convert_short_to_string@str	PTR unsigned char  size(1) Largest target is 6
		 -> YourPass(BANK0[6]), 

    dc_motor_intialize@_dc_motor	PTR const struct . size(1) Largest target is 2
		 -> motor_1(COMRAM[2]), 

    dc_motor_move_left@_dc_motor	PTR const struct . size(1) Largest target is 2
		 -> motor_1(COMRAM[2]), 

    dc_motor_move_right@_dc_motor	PTR const struct . size(1) Largest target is 2
		 -> motor_1(COMRAM[2]), 

    dc_motor_move_toggle@_dc_motor	PTR const struct . size(1) Largest target is 2
		 -> motor_1(COMRAM[2]), 

    dc_motor_stop@_dc_motor	PTR const struct . size(1) Largest target is 2
		 -> motor_1(COMRAM[2]), 

    f$.$buffer	PTR unsigned char  size(2) Largest target is 0

    f$.$source	PTR const unsigned char  size(2) Largest target is 0

    fputc@fp	PTR struct _IO_FILE size(2) Largest target is 12
		 -> sprintf@f(BANK1[12]), 

    fputc@fp$.$buffer	PTR unsigned char  size(2) Largest target is 0

    fputc@fp$.$source	PTR const unsigned char  size(2) Largest target is 0

    gpio_pin_direction_intialize@_pin_config	PTR const struct . size(1) Largest target is 8
		 -> KeyPad1(BANK0[8]), KeyPad1$keypad_columns_pins(BANK0[4]), KeyPad1$keypad_row_pins(BANK0[4]), lcd_1(COMRAM[6]), 
		 -> lcd_1$lcd_data(COMRAM[4]), lcd_1$lcd_en(COMRAM[1]), lcd_1$lcd_rs(COMRAM[1]), led_initialize@pin_obj(COMRAM[1]), 
		 -> motor_1(COMRAM[2]), motor_1$dc_motor(COMRAM[2]), relay_intialize@pin_obj(COMRAM[1]), 

    gpio_pin_intialize@_pin_config	PTR const struct . size(1) Largest target is 8
		 -> KeyPad1(BANK0[8]), KeyPad1$keypad_row_pins(BANK0[4]), lcd_1(COMRAM[6]), lcd_1$lcd_data(COMRAM[4]), 
		 -> lcd_1$lcd_en(COMRAM[1]), lcd_1$lcd_rs(COMRAM[1]), 

    gpio_pin_read_logic@_pin_config	PTR const struct . size(1) Largest target is 8
		 -> KeyPad1(BANK0[8]), KeyPad1$keypad_columns_pins(BANK0[4]), 

    gpio_pin_read_logic@logic	PTR unsigned char  size(1) Largest target is 1
		 -> button_read_status@pin_logic(COMRAM[1]), keypad_get_value@cloumn_logic(COMRAM[1]), 

    gpio_pin_toogle_logic@_pin_config	PTR const struct . size(1) Largest target is 2
		 -> led_turn_toggle@pin_obj(COMRAM[1]), motor_1(COMRAM[2]), motor_1$dc_motor(COMRAM[2]), relay_turn_toggle@pin_obj(COMRAM[1]), 

    gpio_pin_write_logic@_pin_config	PTR const struct . size(1) Largest target is 8
		 -> KeyPad1(BANK0[8]), KeyPad1$keypad_row_pins(BANK0[4]), lcd_1(COMRAM[6]), lcd_1$lcd_data(COMRAM[4]), 
		 -> lcd_1$lcd_en(COMRAM[1]), lcd_1$lcd_rs(COMRAM[1]), led_turn_off@pin_obj(COMRAM[1]), led_turn_on@pin_obj(COMRAM[1]), 
		 -> motor_1(COMRAM[2]), motor_1$dc_motor(COMRAM[2]), relay_turn_off@pin_obj(COMRAM[1]), relay_turn_on@pin_obj(COMRAM[1]), 

    int0_obj$external_interrupt	PTR FTN()void  size(2) Largest target is 1
		 -> INT0_APP_ISR(), INT1_APP_ISR(), INT2_APP_ISR(), 

    int1_obj$external_interrupt	PTR FTN()void  size(2) Largest target is 1
		 -> INT0_APP_ISR(), INT1_APP_ISR(), INT2_APP_ISR(), 

    int2_obj$external_interrupt	PTR FTN()void  size(2) Largest target is 1
		 -> INT0_APP_ISR(), INT1_APP_ISR(), INT2_APP_ISR(), 

    Interrupt_handler_INT0	PTR FTN()void  size(2) Largest target is 1
		 -> INT0_APP_ISR(), INT1_APP_ISR(), INT2_APP_ISR(), NULL(), 

    Interrupt_handler_INT1	PTR FTN()void  size(2) Largest target is 1
		 -> INT0_APP_ISR(), INT1_APP_ISR(), INT2_APP_ISR(), NULL(), 

    Interrupt_handler_INT2	PTR FTN()void  size(2) Largest target is 1
		 -> INT0_APP_ISR(), INT1_APP_ISR(), INT2_APP_ISR(), NULL(), 

    Interrupt_handler_RB4_HIGH	PTR FTN()void  size(2) Largest target is 1
		 -> RB4_HIGH_Int_APP_ISR(), RB5_HIGH_Int_APP_ISR(), RB6_HIGH_Int_APP_ISR(), RB7_HIGH_Int_APP_ISR(), 
		 -> NULL(), 

    Interrupt_handler_RB4_LOW	PTR FTN()void  size(2) Largest target is 1
		 -> RB4_LOW_Int_APP_ISR(), RB5_LOW_Int_APP_ISR(), RB6_LOW_Int_APP_ISR(), RB7_LOW_Int_APP_ISR(), 
		 -> NULL(), 

    Interrupt_handler_RB5_HIGH	PTR FTN()void  size(2) Largest target is 1
		 -> RB4_HIGH_Int_APP_ISR(), RB5_HIGH_Int_APP_ISR(), RB6_HIGH_Int_APP_ISR(), RB7_HIGH_Int_APP_ISR(), 
		 -> NULL(), 

    Interrupt_handler_RB5_LOW	PTR FTN()void  size(2) Largest target is 1
		 -> RB4_LOW_Int_APP_ISR(), RB5_LOW_Int_APP_ISR(), RB6_LOW_Int_APP_ISR(), RB7_LOW_Int_APP_ISR(), 
		 -> NULL(), 

    Interrupt_handler_RB6_HIGH	PTR FTN()void  size(2) Largest target is 1
		 -> RB4_HIGH_Int_APP_ISR(), RB5_HIGH_Int_APP_ISR(), RB6_HIGH_Int_APP_ISR(), RB7_HIGH_Int_APP_ISR(), 
		 -> NULL(), 

    Interrupt_handler_RB6_LOW	PTR FTN()void  size(2) Largest target is 1
		 -> RB4_LOW_Int_APP_ISR(), RB5_LOW_Int_APP_ISR(), RB6_LOW_Int_APP_ISR(), RB7_LOW_Int_APP_ISR(), 
		 -> NULL(), 

    Interrupt_handler_RB7_HIGH	PTR FTN()void  size(2) Largest target is 1
		 -> RB4_HIGH_Int_APP_ISR(), RB5_HIGH_Int_APP_ISR(), RB6_HIGH_Int_APP_ISR(), RB7_HIGH_Int_APP_ISR(), 
		 -> NULL(), 

    Interrupt_handler_RB7_LOW	PTR FTN()void  size(2) Largest target is 1
		 -> RB4_LOW_Int_APP_ISR(), RB5_LOW_Int_APP_ISR(), RB6_LOW_Int_APP_ISR(), RB7_LOW_Int_APP_ISR(), 
		 -> NULL(), 

    Interrupt_INTx_CLEAR_FLAG@int_obj$external_interrupt	PTR FTN()void  size(2) Largest target is 1
		 -> INT0_APP_ISR(), INT1_APP_ISR(), INT2_APP_ISR(), 

    Interrupt_INTx_DISABLE@int_obj$external_interrupt	PTR FTN()void  size(2) Largest target is 1
		 -> INT0_APP_ISR(), INT1_APP_ISR(), INT2_APP_ISR(), 

    Interrupt_INTx_EDGE_INIT@int_obj$external_interrupt	PTR FTN()void  size(2) Largest target is 1
		 -> INT0_APP_ISR(), INT1_APP_ISR(), INT2_APP_ISR(), 

    Interrupt_INTx_ENABLE@int_obj$external_interrupt	PTR FTN()void  size(2) Largest target is 1
		 -> INT0_APP_ISR(), INT1_APP_ISR(), INT2_APP_ISR(), 

    Interrupt_INTx_PIN_INIT@int_obj$external_interrupt	PTR FTN()void  size(2) Largest target is 1
		 -> INT0_APP_ISR(), INT1_APP_ISR(), INT2_APP_ISR(), 

    Interrupt_INTx_SET_Interrupt_handler@int_obj$external_interrupt	PTR FTN()void  size(2) Largest target is 1
		 -> INT0_APP_ISR(), INT1_APP_ISR(), INT2_APP_ISR(), 

    Interrupt_RBx_ENABLE@int_obj$external_interrupt_HIGH	PTR FTN()void  size(2) Largest target is 1
		 -> RB4_HIGH_Int_APP_ISR(), RB5_HIGH_Int_APP_ISR(), RB6_HIGH_Int_APP_ISR(), RB7_HIGH_Int_APP_ISR(), 

    Interrupt_RBx_ENABLE@int_obj$external_interrupt_LOW	PTR FTN()void  size(2) Largest target is 1
		 -> RB4_LOW_Int_APP_ISR(), RB5_LOW_Int_APP_ISR(), RB6_LOW_Int_APP_ISR(), RB7_LOW_Int_APP_ISR(), 

    Interrupt_RBx_PIN_INIT@int_obj$external_interrupt_HIGH	PTR FTN()void  size(2) Largest target is 1
		 -> RB4_HIGH_Int_APP_ISR(), RB5_HIGH_Int_APP_ISR(), RB6_HIGH_Int_APP_ISR(), RB7_HIGH_Int_APP_ISR(), 

    Interrupt_RBx_PIN_INIT@int_obj$external_interrupt_LOW	PTR FTN()void  size(2) Largest target is 1
		 -> RB4_LOW_Int_APP_ISR(), RB5_LOW_Int_APP_ISR(), RB6_LOW_Int_APP_ISR(), RB7_LOW_Int_APP_ISR(), 

    Interrupt_RBx_SET_Interrupt_handler@int_obj$external_interrupt_HIGH	PTR FTN()void  size(2) Largest target is 1
		 -> RB4_HIGH_Int_APP_ISR(), RB5_HIGH_Int_APP_ISR(), RB6_HIGH_Int_APP_ISR(), RB7_HIGH_Int_APP_ISR(), 

    Interrupt_RBx_SET_Interrupt_handler@int_obj$external_interrupt_LOW	PTR FTN()void  size(2) Largest target is 1
		 -> RB4_LOW_Int_APP_ISR(), RB5_LOW_Int_APP_ISR(), RB6_LOW_Int_APP_ISR(), RB7_LOW_Int_APP_ISR(), 

    keypad_get_value@_keypad_obj	PTR const struct . size(1) Largest target is 8
		 -> KeyPad1(BANK0[8]), 

    keypad_get_value@value	PTR unsigned char  size(1) Largest target is 1
		 -> value(COMRAM[1]), 

    keypad_intialize@_keypad_obj	PTR const struct . size(1) Largest target is 8
		 -> KeyPad1(BANK0[8]), 

    lat_register	PTR volatile unsigned char [5] size(2) Largest target is 1
		 -> LATA(BITBIGSFRlllll[1]), LATB(BITBIGSFRllllh[1]), LATC(BITBIGSFRllllh[1]), LATD(BITBIGSFRllllh[1]), 
		 -> LATE(BITBIGSFRllllh[1]), 

    lcd_4_intialize@lcd	PTR struct . size(1) Largest target is 6
		 -> lcd_1(COMRAM[6]), 

    lcd_4_send_char_data@lcd	PTR struct . size(1) Largest target is 6
		 -> lcd_1(COMRAM[6]), 

    lcd_4_send_command@lcd	PTR struct . size(1) Largest target is 6
		 -> lcd_1(COMRAM[6]), 

    lcd_4_send_string_position@lcd	PTR struct . size(1) Largest target is 6
		 -> lcd_1(COMRAM[6]), 

    lcd_4_send_string_position@str	PTR unsigned char  size(2) Largest target is 17
		 -> result_txt(BANK0[6]), STR_10(CODE[16]), STR_11(CODE[17]), STR_12(CODE[13]), 
		 -> STR_13(CODE[7]), STR_14(CODE[15]), STR_15(CODE[16]), STR_16(CODE[12]), 
		 -> STR_4(CODE[16]), STR_5(CODE[16]), STR_6(CODE[2]), STR_7(CODE[13]), 
		 -> STR_8(CODE[11]), STR_9(CODE[17]), 

    lcd_4bit_send_enable_signale@lcd	PTR struct . size(1) Largest target is 6
		 -> lcd_1(COMRAM[6]), 

    lcd_4bit_set_cursor@lcd	PTR struct . size(1) Largest target is 6
		 -> lcd_1(COMRAM[6]), 

    lcd_send_4bit@lcd	PTR struct . size(1) Largest target is 6
		 -> lcd_1(COMRAM[6]), 

    led_initialize@led	PTR const struct . size(1) Largest target is 1
		 -> led_green(COMRAM[1]), led_red(COMRAM[1]), 

    led_turn_off@led	PTR const struct . size(1) Largest target is 1
		 -> led2(COMRAM[1]), led3(COMRAM[1]), led_green(COMRAM[1]), led_red(COMRAM[1]), 

    led_turn_on@led	PTR const struct . size(1) Largest target is 1
		 -> led2(COMRAM[1]), led3(COMRAM[1]), led_green(COMRAM[1]), led_red(COMRAM[1]), 

    led_turn_toggle@led	PTR const struct . size(1) Largest target is 1
		 -> led2(COMRAM[1]), 

    memset@dest	PTR void  size(1) Largest target is 6
		 -> result_txt(BANK0[6]), YourPass(BANK0[6]), 

    memset@p	PTR unsigned char  size(1) Largest target is 6
		 -> result_txt(BANK0[6]), YourPass(BANK0[6]), 

    port_register	PTR volatile unsigned char [5] size(2) Largest target is 1
		 -> PORTA(BITBIGSFRlllll[1]), PORTB(BITBIGSFRlllll[1]), PORTC(BITBIGSFRlllll[1]), PORTD(BITBIGSFRlllll[1]), 

    rb4_int_obj$external_interrupt_HIGH	PTR FTN()void  size(2) Largest target is 1
		 -> RB4_HIGH_Int_APP_ISR(), RB5_HIGH_Int_APP_ISR(), RB6_HIGH_Int_APP_ISR(), RB7_HIGH_Int_APP_ISR(), 

    rb4_int_obj$external_interrupt_LOW	PTR FTN()void  size(2) Largest target is 1
		 -> RB4_LOW_Int_APP_ISR(), RB5_LOW_Int_APP_ISR(), RB6_LOW_Int_APP_ISR(), RB7_LOW_Int_APP_ISR(), 

    rb5_int_obj$external_interrupt_HIGH	PTR FTN()void  size(2) Largest target is 1
		 -> RB4_HIGH_Int_APP_ISR(), RB5_HIGH_Int_APP_ISR(), RB6_HIGH_Int_APP_ISR(), RB7_HIGH_Int_APP_ISR(), 

    rb5_int_obj$external_interrupt_LOW	PTR FTN()void  size(2) Largest target is 1
		 -> RB4_LOW_Int_APP_ISR(), RB5_LOW_Int_APP_ISR(), RB6_LOW_Int_APP_ISR(), RB7_LOW_Int_APP_ISR(), 

    rb6_int_obj$external_interrupt_HIGH	PTR FTN()void  size(2) Largest target is 1
		 -> RB4_HIGH_Int_APP_ISR(), RB5_HIGH_Int_APP_ISR(), RB6_HIGH_Int_APP_ISR(), RB7_HIGH_Int_APP_ISR(), 

    rb6_int_obj$external_interrupt_LOW	PTR FTN()void  size(2) Largest target is 1
		 -> RB4_LOW_Int_APP_ISR(), RB5_LOW_Int_APP_ISR(), RB6_LOW_Int_APP_ISR(), RB7_LOW_Int_APP_ISR(), 

    rb7_int_obj$external_interrupt_HIGH	PTR FTN()void  size(2) Largest target is 1
		 -> RB4_HIGH_Int_APP_ISR(), RB5_HIGH_Int_APP_ISR(), RB6_HIGH_Int_APP_ISR(), RB7_HIGH_Int_APP_ISR(), 

    rb7_int_obj$external_interrupt_LOW	PTR FTN()void  size(2) Largest target is 1
		 -> RB4_LOW_Int_APP_ISR(), RB5_LOW_Int_APP_ISR(), RB6_LOW_Int_APP_ISR(), RB7_LOW_Int_APP_ISR(), 

    S2770$buffer	PTR unsigned char  size(2) Largest target is 0

    S2770$source	PTR const unsigned char  size(2) Largest target is 0

    S702$external_interrupt	PTR FTN()void  size(2) Largest target is 1
		 -> INT0_APP_ISR(), INT1_APP_ISR(), INT2_APP_ISR(), 

    S722$external_interrupt_HIGH	PTR FTN()void  size(2) Largest target is 1
		 -> RB4_HIGH_Int_APP_ISR(), RB5_HIGH_Int_APP_ISR(), RB6_HIGH_Int_APP_ISR(), RB7_HIGH_Int_APP_ISR(), 

    S722$external_interrupt_LOW	PTR FTN()void  size(2) Largest target is 1
		 -> RB4_LOW_Int_APP_ISR(), RB5_LOW_Int_APP_ISR(), RB6_LOW_Int_APP_ISR(), RB7_LOW_Int_APP_ISR(), 

    S760$ADC_INTERRUPT_HANDLER	PTR FTN()void  size(2) Largest target is 1
		 -> NULL(), 

    select_result_format@_adc$ADC_INTERRUPT_HANDLER	PTR FTN()void  size(2) Largest target is 1
		 -> NULL(), 

    select_voltage@_adc$ADC_INTERRUPT_HANDLER	PTR FTN()void  size(2) Largest target is 1
		 -> NULL(), 

    sp__memset	PTR void  size(1) Largest target is 6
		 -> result_txt(BANK0[6]), YourPass(BANK0[6]), 

    sprintf@ap	PTR void [1] size(2) Largest target is 2
		 -> ?_sprintf(BANK1[2]), 

    sprintf@fmt	PTR const unsigned char  size(1) Largest target is 3
		 -> STR_1(CODE[3]), STR_2(CODE[3]), STR_3(CODE[3]), 

    sprintf@s	PTR unsigned char  size(1) Largest target is 6
		 -> result_txt(BANK0[6]), YourPass(BANK0[6]), 

    strcmp@l	PTR const unsigned char  size(1) Largest target is 6
		 -> YourPass(BANK0[6]), 

    strcmp@r	PTR const unsigned char  size(1) Largest target is 6
		 -> pass(BANK0[6]), 

    tris_register	PTR volatile unsigned char [5] size(2) Largest target is 1
		 -> TRISA(BITBIGSFRlllll[1]), TRISB(BITBIGSFRlllh[1]), TRISC(BITBIGSFRlllh[1]), TRISD(BITBIGSFRlllh[1]), 
		 -> TRISE(BITBIGSFRlllh[1]), 

    vfpfcnvrt@ap	PTR PTR void  size(2) Largest target is 2
		 -> sprintf@ap(BANK1[2]), 

    vfpfcnvrt@cp	PTR unsigned char  size(1) Largest target is 3
		 -> STR_1(CODE[3]), STR_2(CODE[3]), STR_3(CODE[3]), 

    vfpfcnvrt@fmt	PTR PTR unsigned char  size(1) Largest target is 1
		 -> vfprintf@cfmt(COMRAM[1]), 

    vfpfcnvrt@fp	PTR struct _IO_FILE size(2) Largest target is 12
		 -> sprintf@f(BANK1[12]), 

    vfprintf@ap	PTR PTR void  size(2) Largest target is 2
		 -> sprintf@ap(BANK1[2]), 

    vfprintf@cfmt	PTR unsigned char  size(1) Largest target is 3
		 -> STR_1(CODE[3]), STR_2(CODE[3]), STR_3(CODE[3]), 

    vfprintf@fmt	PTR const unsigned char  size(1) Largest target is 3
		 -> STR_1(CODE[3]), STR_2(CODE[3]), STR_3(CODE[3]), 

    vfprintf@fp	PTR struct _IO_FILE size(2) Largest target is 12
		 -> sprintf@f(BANK1[12]), 


Critical Paths under _main in COMRAM

    _main->_convert_byte_to_string
    _main->_convert_short_to_string
    _led_turn_on->_gpio_pin_write_logic
    _led_turn_off->_gpio_pin_write_logic
    _lcd_4_send_string_position->_lcd_4bit_set_cursor
    _lcd_4bit_set_cursor->_lcd_4_send_command
    _lcd_4_send_char_data->_lcd_send_4bit
    _keypad_get_value->_gpio_pin_write_logic
    _ecu_layer_initialize->_lcd_4_intialize
    _led_initialize->_gpio_pin_direction_intialize
    _lcd_4_intialize->_lcd_4_send_command
    _lcd_4_send_command->_lcd_send_4bit
    _lcd_send_4bit->_gpio_pin_write_logic
    _lcd_4bit_send_enable_signale->_gpio_pin_write_logic
    _keypad_intialize->_gpio_pin_intialize
    _gpio_pin_intialize->_gpio_pin_write_logic
    _dc_motor_intialize->_gpio_pin_direction_intialize
    _dc_motor_stop->_gpio_pin_write_logic
    _dc_motor_move_toggle->_gpio_pin_toogle_logic
    _dc_motor_move_right->_gpio_pin_write_logic
    _dc_motor_move_left->_gpio_pin_write_logic
    _sprintf->_vfprintf
    _vfprintf->_vfpfcnvrt
    _vfpfcnvrt->_abs
    _abs->___awmod

Critical Paths under _INTERRUPT_MANGER_ in COMRAM

    _INTERRUPT_MANGER_->_RB4_ISR
    _INTERRUPT_MANGER_->_RB5_ISR
    _INTERRUPT_MANGER_->_RB6_ISR
    _INTERRUPT_MANGER_->_RB7_ISR
    _RB7_LOW_Int_APP_ISR->i2_led_turn_off
    _RB7_HIGH_Int_APP_ISR->i2_led_turn_on
    _RB6_LOW_Int_APP_ISR->i2_led_turn_off
    i2_led_turn_off->i2_gpio_pin_write_logic
    _RB6_HIGH_Int_APP_ISR->i2_led_turn_on
    i2_led_turn_on->i2_gpio_pin_write_logic
    _INT2_APP_ISR->_led_turn_toggle
    _led_turn_toggle->i2_gpio_pin_toogle_logic

Critical Paths under _main in BANK0

    _main->_convert_short_to_string

Critical Paths under _INTERRUPT_MANGER_ in BANK0

    None.

Critical Paths under _main in BANK1

    _convert_short_to_string->_sprintf
    _convert_byte_to_string->_sprintf

Critical Paths under _INTERRUPT_MANGER_ in BANK1

    None.

Critical Paths under _main in BANK2

    None.

Critical Paths under _INTERRUPT_MANGER_ in BANK2

    None.

Critical Paths under _main in BANK3

    None.

Critical Paths under _INTERRUPT_MANGER_ in BANK3

    None.

Critical Paths under _main in BANK4

    None.

Critical Paths under _INTERRUPT_MANGER_ in BANK4

    None.

Critical Paths under _main in BANK5

    None.

Critical Paths under _INTERRUPT_MANGER_ in BANK5

    None.

Critical Paths under _main in BANK6

    None.

Critical Paths under _INTERRUPT_MANGER_ in BANK6

    None.

Critical Paths under _main in BANK7

    None.

Critical Paths under _INTERRUPT_MANGER_ in BANK7

    None.

Critical Paths under _main in BANK8

    None.

Critical Paths under _INTERRUPT_MANGER_ in BANK8

    None.

Critical Paths under _main in BANK9

    None.

Critical Paths under _INTERRUPT_MANGER_ in BANK9

    None.

Critical Paths under _main in BANK10

    None.

Critical Paths under _INTERRUPT_MANGER_ in BANK10

    None.

Critical Paths under _main in BANK11

    None.

Critical Paths under _INTERRUPT_MANGER_ in BANK11

    None.

Critical Paths under _main in BANK12

    None.

Critical Paths under _INTERRUPT_MANGER_ in BANK12

    None.

Critical Paths under _main in BANK13

    None.

Critical Paths under _INTERRUPT_MANGER_ in BANK13

    None.

Critical Paths under _main in BANK14

    None.

Critical Paths under _INTERRUPT_MANGER_ in BANK14

    None.

Critical Paths under _main in BANK15

    None.

Critical Paths under _INTERRUPT_MANGER_ in BANK15

    None.

Call Graph Tables:

 ---------------------------------------------------------------------------------
 (Depth) Function   	        Calls       Base Space   Used Autos Params    Refs
 ---------------------------------------------------------------------------------
 (0) _main                                                 2     2      0  149327
                                             18 BANK1      2     2      0
                             ___wmul
             _convert_byte_to_string
            _convert_short_to_string
                 _dc_motor_move_left
                _dc_motor_move_right
               _dc_motor_move_toggle
                      _dc_motor_stop
               _ecu_layer_initialize
                   _keypad_get_value
                 _lcd_4_send_command
         _lcd_4_send_string_position
                       _led_turn_off
                        _led_turn_on
                             _strcmp
 ---------------------------------------------------------------------------------
 (1) _strcmp                                               4     2      2     264
                                             17 COMRAM     4     2      2
 ---------------------------------------------------------------------------------
 (1) _led_turn_on                                          4     3      1    5596
                                             25 COMRAM     4     3      1
               _gpio_pin_write_logic
 ---------------------------------------------------------------------------------
 (1) _led_turn_off                                         4     3      1    5368
                                             25 COMRAM     4     3      1
               _gpio_pin_write_logic
 ---------------------------------------------------------------------------------
 (1) _lcd_4_send_string_position                           6     1      5   41616
                                             37 COMRAM     6     1      5
               _lcd_4_send_char_data
                _lcd_4bit_set_cursor
 ---------------------------------------------------------------------------------
 (2) _lcd_4bit_set_cursor                                  6     3      3   20614
                                             31 COMRAM     6     3      3
                 _lcd_4_send_command
 ---------------------------------------------------------------------------------
 (2) _lcd_4_send_char_data                                 3     1      2   16565
                                             28 COMRAM     3     1      2
               _gpio_pin_write_logic
       _lcd_4bit_send_enable_signale
                      _lcd_send_4bit
 ---------------------------------------------------------------------------------
 (1) _keypad_get_value                                     8     6      2    6112
                                             25 COMRAM     8     6      2
                _gpio_pin_read_logic
               _gpio_pin_write_logic
 ---------------------------------------------------------------------------------
 (2) _gpio_pin_read_logic                                  7     5      2     460
                                             17 COMRAM     7     5      2
 ---------------------------------------------------------------------------------
 (1) _ecu_layer_initialize                                 1     1      0   38912
                 _dc_motor_intialize
                   _keypad_intialize
                    _lcd_4_intialize
                     _led_initialize
 ---------------------------------------------------------------------------------
 (2) _led_initialize                                       4     3      1    1617
                                             24 COMRAM     4     3      1
       _gpio_pin_direction_intialize
 ---------------------------------------------------------------------------------
 (2) _lcd_4_intialize                                      4     3      1   27276
                                             31 COMRAM     4     3      1
                 _gpio_pin_intialize
                 _lcd_4_send_command
 ---------------------------------------------------------------------------------
 (3) _lcd_4_send_command                                   3     1      2   19909
                                             28 COMRAM     3     1      2
               _gpio_pin_write_logic
       _lcd_4bit_send_enable_signale
                      _lcd_send_4bit
 ---------------------------------------------------------------------------------
 (4) _lcd_send_4bit                                        3     1      2    5726
                                             25 COMRAM     3     1      2
               _gpio_pin_write_logic
 ---------------------------------------------------------------------------------
 (4) _lcd_4bit_send_enable_signale                         2     1      1    5287
                                             25 COMRAM     2     1      1
               _gpio_pin_write_logic
 ---------------------------------------------------------------------------------
 (2) _keypad_intialize                                     4     3      1    8525
                                             28 COMRAM     4     3      1
       _gpio_pin_direction_intialize
                 _gpio_pin_intialize
 ---------------------------------------------------------------------------------
 (3) _gpio_pin_intialize                                   3     2      1    6900
                                             25 COMRAM     3     2      1
       _gpio_pin_direction_intialize
               _gpio_pin_write_logic
 ---------------------------------------------------------------------------------
 (2) _dc_motor_intialize                                   2     1      1    1488
                                             24 COMRAM     2     1      1
       _gpio_pin_direction_intialize
 ---------------------------------------------------------------------------------
 (3) _gpio_pin_direction_intialize                         7     6      1    1319
                                             17 COMRAM     7     6      1
 ---------------------------------------------------------------------------------
 (1) _dc_motor_stop                                        2     1      1    5212
                                             25 COMRAM     2     1      1
               _gpio_pin_write_logic
 ---------------------------------------------------------------------------------
 (1) _dc_motor_move_toggle                                 2     1      1     559
                                             23 COMRAM     2     1      1
              _gpio_pin_toogle_logic
 ---------------------------------------------------------------------------------
 (2) _gpio_pin_toogle_logic                                6     5      1     390
                                             17 COMRAM     6     5      1
 ---------------------------------------------------------------------------------
 (1) _dc_motor_move_right                                  2     1      1    5060
                                             25 COMRAM     2     1      1
               _gpio_pin_write_logic
 ---------------------------------------------------------------------------------
 (1) _dc_motor_move_left                                   2     1      1    5060
                                             25 COMRAM     2     1      1
               _gpio_pin_write_logic
 ---------------------------------------------------------------------------------
 (2) _gpio_pin_write_logic                                 8     6      2    4891
                                             17 COMRAM     8     6      2
 ---------------------------------------------------------------------------------
 (1) _convert_short_to_string                              4     1      3    7477
                                             47 COMRAM     1     1      0
                                              0 BANK0      3     0      3
                             _memset
                            _sprintf
 ---------------------------------------------------------------------------------
 (1) _convert_byte_to_string                               3     2      1    7371
                                             47 COMRAM     1     0      1
                                              0 BANK0      2     2      0
                             _memset
                            _sprintf
 ---------------------------------------------------------------------------------
 (2) _sprintf                                             20    16      4    6096
                                              0 BANK1     18    14      4
                           _vfprintf
 ---------------------------------------------------------------------------------
 (3) _vfprintf                                             6     1      5    5014
                                             41 COMRAM     6     1      5
                          _vfpfcnvrt
 ---------------------------------------------------------------------------------
 (4) _vfpfcnvrt                                           14     9      5    4414
                                             27 COMRAM    14     9      5
                            ___awdiv
                            ___awmod
                                _abs
                              _fputc
 ---------------------------------------------------------------------------------
 (5) _fputc                                                9     5      4    1160
                                             17 COMRAM     9     5      4
                              _putch
 ---------------------------------------------------------------------------------
 (6) _putch                                                1     1      0       0
 ---------------------------------------------------------------------------------
 (5) _abs                                                  4     2      2     232
                                             23 COMRAM     4     2      2
                            ___awmod (ARG)
 ---------------------------------------------------------------------------------
 (5) ___awmod                                              6     2      4     818
                                             17 COMRAM     6     2      4
 ---------------------------------------------------------------------------------
 (5) ___awdiv                                              8     4      4     842
                                             17 COMRAM     8     4      4
 ---------------------------------------------------------------------------------
 (2) _memset                                               6     1      5     947
                                             17 COMRAM     6     1      5
 ---------------------------------------------------------------------------------
 (1) ___wmul                                               6     2      4     811
                                             17 COMRAM     6     2      4
 ---------------------------------------------------------------------------------
 Estimated maximum stack depth 6
 ---------------------------------------------------------------------------------
 (Depth) Function   	        Calls       Base Space   Used Autos Params    Refs
 ---------------------------------------------------------------------------------
 (7) _INTERRUPT_MANGER_                                    6     6      0    8309
                                             11 COMRAM     6     6      0
                            _ADC_ISR
                           _INT0_ISR
                           _INT1_ISR
                           _INT2_ISR
                            _RB4_ISR
                            _RB5_ISR
                            _RB6_ISR
                            _RB7_ISR
 ---------------------------------------------------------------------------------
 (8) _RB7_ISR                                              1     1      0    1832
                                             10 COMRAM     1     1      0
                                NULL *
               _RB4_HIGH_Int_APP_ISR *
                _RB4_LOW_Int_APP_ISR *
               _RB5_HIGH_Int_APP_ISR *
                _RB5_LOW_Int_APP_ISR *
               _RB6_HIGH_Int_APP_ISR *
                _RB6_LOW_Int_APP_ISR *
               _RB7_HIGH_Int_APP_ISR *
                _RB7_LOW_Int_APP_ISR *
 ---------------------------------------------------------------------------------
 (8) _RB6_ISR                                              1     1      0    1832
                                             10 COMRAM     1     1      0
                                NULL *
               _RB4_HIGH_Int_APP_ISR *
                _RB4_LOW_Int_APP_ISR *
               _RB5_HIGH_Int_APP_ISR *
                _RB5_LOW_Int_APP_ISR *
               _RB6_HIGH_Int_APP_ISR *
                _RB6_LOW_Int_APP_ISR *
               _RB7_HIGH_Int_APP_ISR *
                _RB7_LOW_Int_APP_ISR *
 ---------------------------------------------------------------------------------
 (8) _RB5_ISR                                              1     1      0    1832
                                             10 COMRAM     1     1      0
                                NULL *
               _RB4_HIGH_Int_APP_ISR *
                _RB4_LOW_Int_APP_ISR *
               _RB5_HIGH_Int_APP_ISR *
                _RB5_LOW_Int_APP_ISR *
               _RB6_HIGH_Int_APP_ISR *
                _RB6_LOW_Int_APP_ISR *
               _RB7_HIGH_Int_APP_ISR *
                _RB7_LOW_Int_APP_ISR *
 ---------------------------------------------------------------------------------
 (8) _RB4_ISR                                              1     1      0    1832
                                             10 COMRAM     1     1      0
                                NULL *
               _RB4_HIGH_Int_APP_ISR *
                _RB4_LOW_Int_APP_ISR *
               _RB5_HIGH_Int_APP_ISR *
                _RB5_LOW_Int_APP_ISR *
               _RB6_HIGH_Int_APP_ISR *
                _RB6_LOW_Int_APP_ISR *
               _RB7_HIGH_Int_APP_ISR *
                _RB7_LOW_Int_APP_ISR *
 ---------------------------------------------------------------------------------
 (9) _RB7_LOW_Int_APP_ISR                                  0     0      0     447
                     i2_led_turn_off
 ---------------------------------------------------------------------------------
 (9) _RB7_HIGH_Int_APP_ISR                                 0     0      0     447
                      i2_led_turn_on
 ---------------------------------------------------------------------------------
 (9) _RB6_LOW_Int_APP_ISR                                  0     0      0     447
                     i2_led_turn_off
 ---------------------------------------------------------------------------------
 (10) i2_led_turn_off                                      4     3      1     447
                                              7 COMRAM     3     2      1
             i2_gpio_pin_write_logic
 ---------------------------------------------------------------------------------
 (9) _RB6_HIGH_Int_APP_ISR                                 0     0      0     447
                      i2_led_turn_on
 ---------------------------------------------------------------------------------
 (10) i2_led_turn_on                                       4     3      1     447
                                              7 COMRAM     3     2      1
             i2_gpio_pin_write_logic
 ---------------------------------------------------------------------------------
 (11) i2_gpio_pin_write_logic                              8     6      2     267
                                              0 COMRAM     7     5      2
 ---------------------------------------------------------------------------------
 (9) _RB5_LOW_Int_APP_ISR                                  0     0      0       0
 ---------------------------------------------------------------------------------
 (9) _RB5_HIGH_Int_APP_ISR                                 0     0      0       0
 ---------------------------------------------------------------------------------
 (9) _RB4_LOW_Int_APP_ISR                                  0     0      0       0
 ---------------------------------------------------------------------------------
 (9) _RB4_HIGH_Int_APP_ISR                                 0     0      0       0
 ---------------------------------------------------------------------------------
 (8) _INT2_ISR                                             0     0      0     327
                                NULL *
                       _INT0_APP_ISR *
                       _INT1_APP_ISR *
                       _INT2_APP_ISR *
 ---------------------------------------------------------------------------------
 (8) _INT1_ISR                                             0     0      0     327
                                NULL *
                       _INT0_APP_ISR *
                       _INT1_APP_ISR *
                       _INT2_APP_ISR *
 ---------------------------------------------------------------------------------
 (8) _INT0_ISR                                             0     0      0     327
                                NULL *
                       _INT0_APP_ISR *
                       _INT1_APP_ISR *
                       _INT2_APP_ISR *
 ---------------------------------------------------------------------------------
 (9) _INT2_APP_ISR                                         0     0      0     327
                    _led_turn_toggle
 ---------------------------------------------------------------------------------
 (10) _led_turn_toggle                                     4     3      1     327
                                              5 COMRAM     3     2      1
            i2_gpio_pin_toogle_logic
 ---------------------------------------------------------------------------------
 (11) i2_gpio_pin_toogle_logic                             6     5      1     122
                                              0 COMRAM     5     4      1
 ---------------------------------------------------------------------------------
 (9) _INT1_APP_ISR                                         0     0      0       0
 ---------------------------------------------------------------------------------
 (9) _INT0_APP_ISR                                         0     0      0       0
 ---------------------------------------------------------------------------------
 (9) NULL(Fake)                                            0     0      0       0
 ---------------------------------------------------------------------------------
 (8) _ADC_ISR                                              0     0      0       0
 ---------------------------------------------------------------------------------
 Estimated maximum stack depth 11
 ---------------------------------------------------------------------------------

 Call Graph Graphs:

 _main (ROOT)
   ___wmul
   _convert_byte_to_string
     _memset
     _sprintf
       _vfprintf
         _vfpfcnvrt
           ___awdiv
           ___awmod
           _abs
             ___awmod (ARG)
           _fputc
             _putch
   _convert_short_to_string
     _memset
     _sprintf
   _dc_motor_move_left
     _gpio_pin_write_logic
   _dc_motor_move_right
     _gpio_pin_write_logic
   _dc_motor_move_toggle
     _gpio_pin_toogle_logic
   _dc_motor_stop
     _gpio_pin_write_logic
   _ecu_layer_initialize
     _dc_motor_intialize
       _gpio_pin_direction_intialize
     _keypad_intialize
       _gpio_pin_direction_intialize
       _gpio_pin_intialize
         _gpio_pin_direction_intialize
         _gpio_pin_write_logic
     _lcd_4_intialize
       _gpio_pin_intialize
       _lcd_4_send_command
         _gpio_pin_write_logic
         _lcd_4bit_send_enable_signale
           _gpio_pin_write_logic
         _lcd_send_4bit
           _gpio_pin_write_logic
     _led_initialize
       _gpio_pin_direction_intialize
   _keypad_get_value
     _gpio_pin_read_logic
     _gpio_pin_write_logic
   _lcd_4_send_command
   _lcd_4_send_string_position
     _lcd_4_send_char_data
       _gpio_pin_write_logic
       _lcd_4bit_send_enable_signale
       _lcd_send_4bit
     _lcd_4bit_set_cursor
       _lcd_4_send_command
   _led_turn_off
     _gpio_pin_write_logic
   _led_turn_on
     _gpio_pin_write_logic
   _strcmp

 _INTERRUPT_MANGER_ (ROOT)
   _ADC_ISR
   _INT0_ISR
     NULL(Fake) *
     _INT0_APP_ISR *
     _INT1_APP_ISR *
     _INT2_APP_ISR *
       _led_turn_toggle
         i2_gpio_pin_toogle_logic
   _INT1_ISR
     NULL(Fake) *
     _INT0_APP_ISR *
     _INT1_APP_ISR *
     _INT2_APP_ISR *
   _INT2_ISR
     NULL(Fake) *
     _INT0_APP_ISR *
     _INT1_APP_ISR *
     _INT2_APP_ISR *
   _RB4_ISR
     NULL(Fake) *
     _RB4_HIGH_Int_APP_ISR *
     _RB4_LOW_Int_APP_ISR *
     _RB5_HIGH_Int_APP_ISR *
     _RB5_LOW_Int_APP_ISR *
     _RB6_HIGH_Int_APP_ISR *
       i2_led_turn_on
         i2_gpio_pin_write_logic
     _RB6_LOW_Int_APP_ISR *
       i2_led_turn_off
         i2_gpio_pin_write_logic
     _RB7_HIGH_Int_APP_ISR *
       i2_led_turn_on
     _RB7_LOW_Int_APP_ISR *
       i2_led_turn_off
   _RB5_ISR
     NULL(Fake) *
     _RB4_HIGH_Int_APP_ISR *
     _RB4_LOW_Int_APP_ISR *
     _RB5_HIGH_Int_APP_ISR *
     _RB5_LOW_Int_APP_ISR *
     _RB6_HIGH_Int_APP_ISR *
     _RB6_LOW_Int_APP_ISR *
     _RB7_HIGH_Int_APP_ISR *
     _RB7_LOW_Int_APP_ISR *
   _RB6_ISR
     NULL(Fake) *
     _RB4_HIGH_Int_APP_ISR *
     _RB4_LOW_Int_APP_ISR *
     _RB5_HIGH_Int_APP_ISR *
     _RB5_LOW_Int_APP_ISR *
     _RB6_HIGH_Int_APP_ISR *
     _RB6_LOW_Int_APP_ISR *
     _RB7_HIGH_Int_APP_ISR *
     _RB7_LOW_Int_APP_ISR *
   _RB7_ISR
     NULL(Fake) *
     _RB4_HIGH_Int_APP_ISR *
     _RB4_LOW_Int_APP_ISR *
     _RB5_HIGH_Int_APP_ISR *
     _RB5_LOW_Int_APP_ISR *
     _RB6_HIGH_Int_APP_ISR *
     _RB6_LOW_Int_APP_ISR *
     _RB7_HIGH_Int_APP_ISR *
     _RB7_LOW_Int_APP_ISR *

 Address spaces:
Name               Size   Autos  Total    Cost      Usage
BIGRAM             F7F      0       0      44        0.0%
EEDATA             400      0       0       0        0.0%
BITBANK14          100      0       0      33        0.0%
BANK14             100      0       0      34        0.0%
BITBANK13          100      0       0      31        0.0%
BANK13             100      0       0      32        0.0%
BITBANK12          100      0       0      29        0.0%
BANK12             100      0       0      30        0.0%
BITBANK11          100      0       0      27        0.0%
BANK11             100      0       0      28        0.0%
BITBANK10          100      0       0      25        0.0%
BANK10             100      0       0      26        0.0%
BITBANK9           100      0       0      23        0.0%
BANK9              100      0       0      24        0.0%
BITBANK8           100      0       0      21        0.0%
BANK8              100      0       0      22        0.0%
BITBANK7           100      0       0      19        0.0%
BANK7              100      0       0      20        0.0%
BITBANK6           100      0       0      17        0.0%
BANK6              100      0       0      18        0.0%
BITBANK5           100      0       0      15        0.0%
BANK5              100      0       0      16        0.0%
BITBANK4           100      0       0      13        0.0%
BANK4              100      0       0      14        0.0%
BITBANK3           100      0       0      10        0.0%
BANK3              100      0       0      11        0.0%
BITBANK2           100      0       0       8        0.0%
BANK2              100      0       0       9        0.0%
BITBANK1           100      0       0       6        0.0%
BANK1              100     14      3E       7       24.2%
BITBANK15           80      0       0      35        0.0%
BANK15              80      0       0      36        0.0%
BITBANK0            80      0       0       4        0.0%
BANK0               80      3      80       5      100.0%
BITCOMRAM           7E      0       0       0        0.0%
COMRAM              7E     30      6D       1       86.5%
BITBIGSFRhlhl       2B      0       0      38        0.0%
BITBIGSFRllhh       15      0       0      39        0.0%
BITBIGSFRhh          D      0       0      37        0.0%
BITBIGSFRllhll       7      0       0      40        0.0%
BITBIGSFRlllh        6      0       0      41        0.0%
BITBIGSFRlllll       5      0       0      43        0.0%
BITBIGSFRllllh       4      0       0      42        0.0%
BIGSFR               0      0       0     200        0.0%
BITSFR               0      0       0     200        0.0%
SFR                  0      0       0     200        0.0%
STACK                0      0       0       2        0.0%
NULL                 0      0       0       0        0.0%
ABS                  0      0     12B      12        0.0%
DATA                 0      0     12B       3        0.0%
CODE                 0      0       0       0        0.0%


Microchip Technology PIC18 Macro Assembler V2.45 build 20230818022343 
Symbol Table                                                                                   Sat Feb 10 00:24:21 2024

                         ?_lcd_send_4bit 001A                    _gpio_pin_toogle_logic 25A2  
                                     l73 2E0A                                       l68 20FA  
                                     l78 2DAE                                       l99 2512  
                           ___awdiv@sign 0017                      ___wmul@multiplicand 0014  
                 ??_RB6_HIGH_Int_APP_ISR 000B                     ?_RB5_LOW_Int_APP_ISR 0001  
                      ??_led_turn_toggle 0007                                      l220 3060  
                                    l230 302C                                      l302 298E  
                                    l160 2E5E                                      l240 2FB4  
                                    l225 2FF0                                      l209 2328  
                                    l235 3094                                      l180 2F78  
                                    l420 31AC                                      l165 2EAE  
                                    l261 2C8E                                      l175 2A00  
                                    l275 2014                                      l623 1D12  
                                    l295 291A                                      l288 2B52  
                                    l642 1E22                                      l656 262C  
                                    l664 2A72                                      l649 247C  
                                    _abs 3096                            ?_INT0_APP_ISR 0001  
                        __end_of_ADC_ISR 3228                                      _ret 005D  
                           ___awmod@sign 0017                      led_initialize@F3479 0058  
                                    tosl 0FFD                                      wreg 0FE8  
                          ?_INT1_APP_ISR 0001                             ?_led_turn_on 001A  
                          ?_INT2_APP_ISR 0001                          __end_of_RB4_ISR 28A8  
                        __end_of_RB5_ISR 282A                          __end_of_RB6_ISR 27AC  
                        __end_of_RB7_ISR 272E                                     ?_abs 0018  
                                   l1151 31D2                                     l1382 21BE  
                                   l1395 23D8                                     l4301 2F54  
                                   l4151 1DA6                                     l4143 1D14  
                                   l4303 2F60                                     l4145 1D28  
                                   l4401 2A70                                     l4305 2F68  
                                   l1835 2F3A                                     l4155 1DF6  
                                   l4147 1D48                                     l4307 2F76  
                                   l4411 2E08                                     l1828 30F8  
                                   l6021 30D2                                     l1909 3228  
                                   l4149 1D50                                     l4157 1E20  
                                   l4405 2DB0                                     l4501 202A  
                                   l1917 2D52                                     l6023 30DC  
                                   l4271 1C80                                     l4263 1BEE  
                                   l4407 2DC0                                     l4511 204A  
                                   l4503 2032                                     l5071 2CFE  
                                   l5081 31CA                                     l6025 30DE  
                                   l1873 1BEC                                     l4265 1C02  
                                   l4409 2DC8                                     l4521 2082  
                                   l4513 2056                                     l4505 2046  
                                   l5073 2D1C                                     l6019 30CA  
                                   l1883 30B0                                     l4275 1CD0  
                                   l4267 1C22                                     l4291 29FA  
                                   l4531 20C6                                     l4523 209C  
                                   l4515 2058                                     l5075 2D32  
                                   l5067 2CF6                                     l4269 1C2A  
                                   l4277 1D10                                     l4293 29FE  
                                   l4285 2990                                     l4533 20D2  
                                   l4525 20A2                                     l4517 2068  
                                   l4701 2AEA                                     l5069 2CFA  
                                   l1886 30C8                                     l5079 31AE  
                                   l1879 2EF6                                     l4391 2A12  
                                   l4287 29A0                                     l4535 20DE  
                                   l4527 20AE                                     l4519 2076  
                                   l4711 2B3E                                     l4703 2B00  
                                   l4543 2D54                                     l6401 2198  
                                   l4641 302E                                     l4393 2A32  
                                   l4297 2F3C                                     l4289 29A8  
                                   l4537 20EA                                     l4529 20BA  
                                   l4713 2B46                                     l4705 2B1C  
                                   l4545 2D64                                     l4561 22B0  
                                   l4553 227A                                     l1898 2278  
                                   l6403 219E                                     l6411 232A  
                                   l4643 303E                                     l4395 2A3A  
                                   l4299 2F4C                                     l4539 20F8  
                                   l4715 2B50                                     l4707 2B1E  
                                   l4491 241E                                     l4547 2D6C  
                                   l4563 22C4                                     l4571 2326  
                                   l4555 228E                                     l6405 21AE  
                                   l6421 2356                                     l6413 232E  
                                   l6501 1BA0                                     l4821 2FB6  
                                   l4661 262A                                     l4653 25A2  
                                   l4645 3046                                     l4397 2A44  
                                   l4389 2A02                                     l4709 2B2E  
                                   l4493 2426                                     l4485 23DA  
                                   l4549 2DAC                                     l4565 22D8  
                                   l4557 2296                                     l4741 247E  
                                   l6407 21B6                                     l6431 238E  
                                   l6423 235E                                     l6415 233C  
                                   l6503 1BA2                                     l4823 2FC6  
                                   l4655 25B6                                     l4647 305A  
                                   l4399 2A58                                     l4495 247A  
                                   l4487 23EE                                     l4911 1FF0  
                                   l4903 1FAA                                     l4559 229C  
                                   l4751 24DE                                     l4743 248E  
                                   l6441 23C8                                     l6433 23A4  
                                   l6425 2370                                     l6417 2344  
                                   l6505 1BB8                                     l6521 2EEE  
                                   l4841 302A                                     l4833 2FF2  
                                   l4825 2FCE                                     l4657 25D6  
                                   l4649 305E                                     l4681 2C68  
                                   l4665 2C28                                     l4489 23FE  
                                   l4913 2000                                     l4905 1FBC  
                                   l4569 22EC                                     l4753 2510  
                                   l4745 2496                                     l4921 28A8  
                                   l6601 11C8                                     l6371 210E  
                                   l6443 23D0                                     l6435 23AC  
                                   l6427 2378                                     l6419 2348  
                                   l6451 21E4                                     l6515 2EB0  
                                   l6531 2F16                                     l4835 3002  
                                   l4827 2FEA                                     l4659 25DE  
                                   l4851 308E                                     l4691 2C7C  
                                   l4675 2C4C                                     l4667 2C40  
                                   l4499 2016                                     l4915 2002  
                                   l4907 1FCC                                     l4747 24AC  
                                   l4931 28E4                                     l4923 28AC  
                                   l6611 11FE                                     l6603 11E6  
                                   l6381 2134                                     l6373 2116  
                                   l6437 23B2                                     l6429 2380  
                                   l6461 3096                                     l6453 21EE  
                                   l6509 1BC4                                     l6517 2EB8  
                                   l6533 2F2E                                     l6525 2EF8  
                                   l6541 2E26                                     l4837 300A  
                                   l4829 2FEE                                     l4853 3092  
                                   l4845 3062                                     l4861 2F92  
                                   l4677 2C56                                     l4693 2C8C  
                                   l4669 2C48                                     l4909 1FEE  
                                   l4917 2012                                     l4749 24DA  
                                   l4933 28F4                                     l4925 28B0  
                                   l6701 1564                                     l6621 125A  
                                   l6613 1218                                     l6605 11EA  
                                   l6391 216C                                     l6383 213C  
                                   l6375 211A                                     l6367 20FC  
                                   l6439 23B8                                     l6463 30A4  
                                   l6455 220C                                     l6447 21C0  
                                   l6471 1A42                                     l6519 2ED0  
                                   l6527 2F06                                     l6543 2E2E  
                                   l6551 2E60                                     l4839 3026  
                                   l4847 3072                                     l4863 2FAE  
                                   l4687 2C6C                                     l4679 2C58  
                                   l4871 1F4A                                     l4951 2956  
                                   l4943 291C                                     l4935 2904  
                                   l4927 28C6                                     l6711 15DA  
                                   l6703 1572                                     l6623 1274  
                                   l6631 12BA                                     l6615 122C  
                                   l6607 11EC                                     l6393 2172  
                                   l6385 214E                                     l6377 2128  
                                   l6369 2100                                     l6457 2242  
                                   l6449 21D2                                     l6481 1ABE  
                                   l6473 1A46                                     l6465 1A0A  
                                   l6529 2F0E                                     l6545 2E46  
                                   l6537 2E10                                     l6553 2E76  
                                   l4849 307A                                     l4865 2FB2  
                                   l4857 2F7A                                     l4689 2C7A  
                                   l4697 2AE6                                     l4881 1F66  
                                   l4873 1F5A                                     l4961 298C  
                                   l4953 2958                                     l4945 2920  
                                   l4937 290C                                     l4929 28E2  
                                   l6721 1624                                     l6713 15EA  
                                   l6705 158C                                     l6641 1302  
                                   l6633 12BC                                     l6625 1292  
                                   l6617 123C                                     l6609 11EE  
                                   l6395 2188                                     l6387 2156  
                                   l6379 2130                                     l6491 1B38  
                                   l6483 1AC2                                     l6475 1A50  
                                   l6467 1A2E                                     l6547 2E5A  
                                   l6539 2E16                                     l6555 2E7E  
                                   l4859 2F8A                                     l4699 2AE6  
                                   l4971 3194                                     l4891 1F7A  
                                   l4875 1F62                                     l4955 2968  
                                   l4947 2924                                     l4939 2918  
                                   l6731 167A                                     l6723 163E  
                                   l6715 15F8                                     l6707 15AA  
                                   l6651 1380                                     l6643 1320  
                                   l6627 129C                                     l6619 124C  
                                   l6397 2190                                     l6389 215E  
                                   l6493 1B48                                     l6485 1AD6  
                                   l6477 1A6E                                     l6469 1A36  
                                   l6557 2E96                                     l4973 319C  
                                   l4965 3184                                     l4893 1F8A  
                                   l4869 1F2A                                     l4957 2978  
                                   l4949 293A                                     l6741 16D2  
                                   l6725 1648                                     l6717 1612  
                                   l6709 15CC                                     l6661 13D6  
                                   l6653 138C                                     l6645 133A  
                                   l6637 12D0                                     l6581 110A  
                                   l6399 2192                                     l6495 1B58  
                                   l6487 1B0A                                     l6479 1A8C  
                                   l6559 2EAC                                     l4975 31A4  
                                   l4967 3184                                     l4895 1F98  
                                   l4887 1F6A                                     l4959 2980  
                                   l6735 1688                                     l6727 1656  
                                   l6719 161A                                     l6671 142C  
                                   l6655 13A4                                     l6647 1348  
                                   l6639 12E8                                     l6663 13F0  
                                   l6591 1172                                     l6583 1124  
                                   l6575 10C0                                     l6497 1B68  
                                   l6489 1B26                                     l4969 318C  
                                   l4897 1FA6                                     l4889 1F78  
                                   l6737 16A0                                     l6729 1660  
                                   l6681 14A0                                     l6673 1446  
                                   l6657 13BE                                     l6649 1362  
                                   l6665 1400                                     l6593 1176  
                                   l6585 1132                                     l6577 10D2  
                                   l6499 1B7E                                     l6739 16B4  
                                   l6747 16F4                                     l6691 14F0  
                                   l6683 14AE                                     l6675 1464  
                                   l6659 13C8                                     l6595 1182  
                                   l6587 1150                                     l6579 10EC  
                                   l6693 150A                                     l6685 14C8  
                                   l6677 1482                                     l6669 1414  
                                   l6597 1190                                     l6589 116E  
                                   l6871 1E0A                                     l6695 1528  
                                   l6679 149C                                     l6599 11A0  
                                   l6687 14D2                                     l6865 170A  
                                   l6697 1546                                     l6689 14E2  
                                   l6867 2300                                     l6699 1560  
                                   l6869 1CFA                                     STR_1 10BA  
                                   STR_2 10BA                                     STR_4 1033  
                                   STR_5 1063                                     STR_6 10BD  
                                   STR_7 108F                                     STR_8 10A8  
                                   STR_9 1022                                     u3020 1C02  
                                   u3021 1BFE                                     _LATA 0F89  
                                   u3030 1C22                                     _LATB 0F8A  
                                   u3031 1C1E                                     _LATC 0F8B  
                                   _LATD 0F8C                                     _LATE 0F8D  
                                   u3060 1CE6                                     u3044 1C48  
                                   u3300 2DC0                                     u3061 1CE0  
                                   u3045 1C44                                     u3301 2DBC  
                                   u3070 1CE8                                     u3054 1C9E  
                                   u3055 1C9A                                     u3080 29A0  
                                   u3400 241E                                     u3081 299C  
                                   u3401 241A                                     u3090 2F4C  
                                   u3091 2F48                                     u3420 202A  
                                   u3421 2026                                     u3510 303E  
                                   u3270 2A12                                     u3430 2068  
                                   u3414 246E                                     u3511 303A  
                                   u3271 2A0E                                     u3431 2064  
                                   u3415 246A                                     u3520 25B6  
                                   u3280 2A32                                     u3440 2D64  
                                   u4160 2D1C                                     u3521 25B2  
                                   u3281 2A2E                                     u3441 2D60  
                                   u4161 2D18                                     u2810 1D28  
                                   u3530 25D6                                     u3290 2A58  
                                   u3450 228E                                     u3610 248E  
                                   u4170 2D32                                     u2811 1D24  
                                   u3531 25D2                                     u3291 2A54  
                                   u3451 228A                                     u3611 248A  
                                   u4171 2D2E                                     u2820 1D48  
                                   u3380 23EE                                     u3620 24D2  
                                   u2821 1D44                                     u3381 23EA  
                                   u3710 2FC6                                     u3550 2C40  
                                   u3390 23FE                                     u3630 2500  
                                   u3711 2FC2                                     u3551 2C3C  
                                   u3391 23FA                                     u6007 120A  
                                   u3720 3002                                     u3544 25FC  
                                   u3560 2C68                                     u3800 2012  
                                   u3640 2510                                     u3721 2FFE  
                                   u3545 25F8                                     u3561 2C64  
                                   u3801 200E                                     u3641 250C  
                                   u6017 1266                                     u2834 1D6E  
                                   u3730 3072                                     u3570 2C8C  
                                   u2835 1D6A                                     u3731 306E  
                                   u3571 2C88                                     u3627 24C8  
                                   u6107 14BA                                     u6027 12A8  
                                   u2844 1DC4                                     u3740 2F8A  
                                   u3820 2904                                     u2845 1DC0  
                                   u3741 2F86                                     u3637 24F6  
                                   u3821 2900                                     u6117 14FC  
                                   u6037 12F4                                     u3590 2B3E  
                                   u3750 1F4A                                     u6207 2088  
                                   u3591 2B3A                                     u3751 1F46  
                                   u3815 28F2                                     u6127 1552  
                                   u6047 132C                                     u5600 214E  
                                   u3760 1F5A                                     u3840 2978  
                                   u5601 214A                                     u6217 209E  
                                   u3585 2B2C                                     u3761 1F56  
                                   u3841 2974                                     u3817 28F4  
                                   u6137 157E                                     u6057 1354  
                                   u5610 216C                                     u3770 1F8A  
                                   u5611 2168                                     u6227 2F62  
                                   u3587 2B2E                                     u3771 1F86  
                                   u3835 2966                                     u6147 1604  
                                   u6067 13B0                                     u5460 30F8  
                                   u5620 2188                                     u5700 21D2  
                                   u3780 1FCC                                     u5461 30F4  
                                   u5621 2184                                     u5701 21CE  
                                   u3781 1FC8                                     u3837 2968  
                                   u6157 1630                                     u6077 13E2  
                                   u5630 21AE                                     u5710 21E4  
                                   u3790 2000                                     u5631 21AA  
                                   u5711 21E0                                     u3791 1FFC  
                                   u6167 166C                                     u6087 1438  
                                   u5640 233C                                     u5720 220C  
                                   u5800 1B38                                     u5641 2338  
                                   u5721 2208                                     u5801 1B34  
                                   u6177 16C0                                     u6097 148E  
                                   u5650 2356                                     u5730 2242  
                                   u5810 1B48                                     u5651 2352  
                                   u5731 223E                                     u5811 1B44  
                                   u6187 1F9E                                     u5580 210E  
                                   u5660 2370                                     u5740 30A4  
                                   u5820 1B58                                     u5900 11FE  
                                   u5581 210A                                     u5661 236C  
                                   u5741 30A0                                     u5821 1B54  
                                   u6197 206E                                     u5901 11FA  
                                   u5590 2128                                     u5670 238E  
                                   u5830 1B68                                     u5750 1A2E  
                                   u5910 124C                                     u5591 2124  
                                   u5671 238A                                     u5831 1B64  
                                   u5751 1A2A                                     u5911 1248  
                                   u5680 23A4                                     u5840 1BB4  
                                   u5760 1A6E                                     u5920 12CC  
                                   u5681 23A0                                     u5841 1BB0  
                                   u5761 1A6A                                     u5921 12C8  
                                   u5690 23C8                                     u5770 1A8C  
                                   u5850 2EEE                                     u5930 1400  
                                   u5691 23C4                                     u5771 1A88  
                                   u5851 2EEA                                     u5931 13FC  
                                   u5780 1AD2                                     u5860 2E26  
                                   u5940 1410                                     u5781 1ACC  
                                   u5861 2E22                                     u5941 140C  
                                   u5790 1AD4                                     u5870 2E76  
                                   u5950 14E2                                     u5871 2E72  
                                   u5951 14DE                                     u5960 15EA  
                                   u5961 15E6                                     u5890 11A0  
                                   u5891 119C                                     u5977 10DE  
                                   u5987 1116                                     u5997 113E  
                                   abs@a 0018                                     _led2 006B  
                                   _led3 006A                                     _dbuf 0100  
         gpio_pin_read_logic@_pin_config 0012                                     _flag 005B  
                                   _main 10C0                                     _pass 00EB  
                                   _prec 0033                                     fsr0h 0FEA  
                                   fsr1h 0FE2                                     indf0 0FEF  
                                   fsr2h 0FDA                                     fsr0l 0FE9  
                                   indf1 0FE7                                     indf2 0FDF  
                                   fsr1l 0FE1                                     fsr2l 0FD9  
                                   btemp 006E                   __end_of_led_initialize 2B54  
   __end_of_lcd_4bit_send_enable_signale 2F7A             _lcd_4bit_send_enable_signale 2F3C  
           keypad_get_value@rows_counter 0020                    ?_RB7_HIGH_Int_APP_ISR 0001  
                                   prodh 0FF4                                     prodl 0FF3  
                                   start 000E                  fp__RB5_HIGH_Int_APP_ISR 0000  
                          ?_led_turn_off 001A                             ___param_bank 0000  
                    _RB6_LOW_Int_APP_ISR 31F2                _Interrupt_handler_RB4_LOW 003D  
              _Interrupt_handler_RB5_LOW 003B                _Interrupt_handler_RB6_LOW 0039  
              _Interrupt_handler_RB7_LOW 0037                                    ??_abs 001A  
                   _gpio_pin_write_logic 1D14                         __end_of_INT0_ISR 3184  
                       __end_of_INT1_ISR 3156                         __end_of_INT2_ISR 3128  
                  ??_RB5_LOW_Int_APP_ISR 0001                                    ?_main 0001  
                        __end_of___awdiv 21C0                                    _EEADR 0FA9  
                                  STR_10 1053                                    STR_11 1011  
                                  STR_12 1082                                    STR_13 10B3  
                                  STR_14 1073                                    STR_15 1043  
                                  STR_16 109C                          __end_of___awmod 23DA  
                        ___awdiv@divisor 0014                           ??_INT0_APP_ISR 0001  
                                  i2l302 2BBC                                    i2l309 2CF4  
                                  i2l423 3234                                    i2l432 3230  
                                  i2l441 322A                                    i2l426 3232  
                                  i2l450 3218                                    i2l435 322C  
                                  i2l444 320E                                    i2l429 3222  
                                  i2l453 3204                                    i2l438 322E  
                                  i2l295 2C26                                    i2l447 31FA  
                                  i2l552 3226                                    i2l642 1F28  
                                  i2l903 28A6                                    i2l656 26AE  
                                  i2l914 2828                                    i2l925 27AA  
                                  i2l936 272C                                    i2l884 3182  
                                  i2l892 3126                          ___awdiv@counter 0016  
                                  i2l888 3154                      relay_turn_off@F3489 0052  
                           vfpfcnvrt@fmt 001E                                    _PORTA 0F80  
                                  _PORTB 0F81                                    _PORTC 0F82  
                                  _PORTD 0F83                           ??_INT1_APP_ISR 0001  
                                  _TRISA 0F92                                    _TRISB 0F93  
                                  _TRISC 0F94                                    _TRISD 0F95  
                                  _TRISE 0F96                lcd_4bit_set_cursor@column 0022  
                         ??_INT2_APP_ISR 0009                 ?_convert_short_to_string 00FD  
               __end_of_keypad_get_value 2016                                    _adc_1 00AE  
                                  _adc_2 00A6                                    _adc_3 009E  
                   ?_RB6_LOW_Int_APP_ISR 0001                                    _lcd_1 0062  
                                  _lcd_2 0134                                    _flags 004F  
                                  _forsa 005A                                    _fputc 21C0  
                                  _value 0059                                    _width 0031  
                                  _putch 3228                                    pclath 0FFA  
                                  pclatu 0FFB                                    tablat 0FF5  
                  dc_motor_intialize@ret 001A                                    ttemp5 006F  
                                  ttemp6 0072                                    ttemp7 0076  
                                  status 0FD8                         ??i2_led_turn_off 0009  
                                  wtemp8 006F                          __end_of_sprintf 2F3C  
                        ?_led_initialize 0019                           ??_led_turn_off 001B  
               __end_of_keypad_intialize 2C90            ?_lcd_4bit_send_enable_signale 001A  
                        ??_lcd_send_4bit 001C                     i2led_turn_on@pin_obj 000A  
                        __initialization 2514                      keypad_get_value@ret 001D  
                 ?_gpio_pin_toogle_logic 0012                             __end_of_main 1734  
                  ?_gpio_pin_write_logic 0012              i2gpio_pin_write_logic@logic 0002  
                              ??_ADC_ISR 0001               _Interrupt_handler_RB4_HIGH 0045  
             _Interrupt_handler_RB5_HIGH 0043               _Interrupt_handler_RB6_HIGH 0041  
             _Interrupt_handler_RB7_HIGH 003F                 gpio_pin_read_logic@logic 0013  
                keypad_get_value@counter 001F                                   ??_main 0132  
                    _RB7_LOW_Int_APP_ISR 31FC                            __activetblptr 0003  
                       led_turn_on@F3484 0057                                ??_RB4_ISR 000B  
                              ??_RB5_ISR 000B                                ??_RB6_ISR 000B  
                              ??_RB7_ISR 000B         lcd_4_send_string_position@column 0028  
                  ??_RB6_LOW_Int_APP_ISR 000B                    lcd_4_send_command@lcd 001D  
                  lcd_4_send_command@ret 001F                            _counter_value 0050  
                                 ?_fputc 0012                                   _ADRESH 0FC4  
                                 _EEADRH 0FAA                                   _ADRESL 0FC3  
                                 _EEDATA 0FA8                                   _EECON2 0FA7  
                       ___awdiv@dividend 0012                                   ?_putch 0001  
                                 i2l1030 178E                                   i2l1040 18BE  
                                 i2l1032 17AE                                   i2l1042 1902  
                                 i2l1034 17F2                                   i2l1051 19EE  
                                 i2l1044 1946                                   i2l1036 1836  
                                 i2l1028 176E                                   i2l1046 198A  
                                 i2l1038 187A                                   i2l1048 19CE  
                                 i2l5001 312A                                   i2l5003 313C  
                                 i2l5011 282C                                   i2l5005 30FA  
                                 i2l5021 287C                                   i2l5013 282E  
                                 i2l5007 30FC                                   i2l5023 288E  
                                 i2l5015 283E                                   i2l5031 27D2  
                                 i2l2801 3224                                   i2l5009 310E  
                                 i2l5017 2850                                   i2l5033 27EE  
                                 i2l5025 27AE                                   i2l5041 2732  
                                 i2l5019 286C                                   i2l5035 27FE  
                                 i2l5027 27B0                                   i2l5051 2792  
                                 i2l5043 2742                                   i2l4421 2CAA  
                                 i2l5037 2810                                   i2l5029 27C0  
                                 i2l5045 2754                                   i2l5061 26F2  
                                 i2l5053 26B2                                   i2l4431 2CEC  
                                 i2l4423 2CC6                                   i2l4415 2C90  
                                 i2l5047 2770                                   i2l5039 2730  
                                 i2l5063 2702                                   i2l5055 26B4  
                                 i2l4425 2CC8                                   i2l4417 2C90  
                                 i2l4361 1E24                                   i2l5049 2780  
                                 i2l5065 2714                                   i2l5057 26C4  
                                 i2l4427 2CD8                                   i2l4419 2C94  
                                 i2l4363 1E34                                   i2l4451 2BD8  
                                 i2l5059 26D6                                   i2l4381 263E  
                                 i2l4429 2CE8                                   i2l4373 1EFE  
                                 i2l4365 1E54                                   i2l4461 2C1A  
                                 i2l4453 2BF4                                   i2l4445 2BBE  
                                 i2l4383 265E                                   i2l4367 1E58  
                                 i2l4455 2BF6                                   i2l4447 2BBE  
                                 i2l4471 2B6E                                   i2l4385 2662  
                                 i2l4369 1EAE                                   i2l4457 2C06  
                                 i2l4449 2BC2                                   i2l4481 2BB0  
                                 i2l4473 2B8A                                   i2l4465 2B54  
                                 i2l4721 3206                                   i2l5601 1860  
                                 i2l4379 262E                                   i2l4459 2C16  
                                 i2l4475 2B8C                                   i2l4467 2B54  
                                 i2l4723 31F2                                   i2l5611 18A4  
                                 i2l5603 1870                                   i2l4477 2B9C  
                                 i2l4469 2B58                                   i2l4725 3210  
                                 i2l5621 18E8                                   i2l5613 18B4  
                                 i2l5605 1874                                   i2l4719 321A  
                                 i2l4479 2BAC                                   i2l4727 31FC  
                                 i2l5631 192C                                   i2l5623 18F8  
                                 i2l5615 18B8                                   i2l5607 1888  
                                 i2l5641 1970                                   i2l5633 193C  
                                 i2l5625 18FC                                   i2l5617 18CC  
                                 i2l5609 1896                                   i2l5651 19B4  
                                 i2l5643 1980                                   i2l5635 1940  
                                 i2l5627 1910                                   i2l5619 18DA  
                                 i2l5571 178A                                   i2l5563 174E  
                                 i2l5653 19C4                                   i2l5645 1984  
                                 i2l5637 1954                                   i2l5629 191E  
                                 i2l5581 17D8                                   i2l5573 179C  
                                 i2l5565 175C                                   i2l5655 19C8  
                                 i2l5647 1998                                   i2l5639 1962  
                                 i2l5591 181C                                   i2l5583 17E8  
                                 i2l5575 17AA                                   i2l5567 176A  
                                 i2l5657 19DC                                   i2l5649 19A6  
                                 i2l5593 182C                                   i2l5585 17EC  
                                 i2l5577 17BC                                   i2l5569 177C  
                                 i2l5659 19EA                                   i2l5595 1830  
                                 i2l5587 1800                                   i2l5579 17CA  
                                 i2l5597 1844                                   i2l5589 180E  
                                 i2l5599 1852                                   i2l4993 3156  
                                 i2l4995 3158                                   i2l4997 316A  
                                 i2l4999 3128                                   i2l6873 1F12  
                          vfpfcnvrt@done 0023                   ??_RB7_HIGH_Int_APP_ISR 000B  
                   ?_RB7_LOW_Int_APP_ISR 0001                            _tris_register 0094  
          dc_motor_move_toggle@_dc_motor 0018              __end_of_dc_motor_move_right 2FF2  
                           vfprintf@cfmt 002F                  i2_gpio_pin_toogle_logic 262E  
                                 ___wmul 31AE                                ??___awdiv 0016  
                              ??___awmod 0016                                   _memset 30CA  
                                 clear_0 257A                                   clear_1 2586  
                                 clear_2 2592                    led_initialize@pin_obj 001C  
                       ___awdiv@quotient 0018                          ___awmod@divisor 0014  
                                 isa$std 0001                                   _result 0035  
                       lcd_send_4bit@lcd 001A                          ___awmod@counter 0016  
                       lcd_send_4bit@ret 001C                                   _strcmp 2CF6  
gpio_pin_direction_intialize@_pin_config 0012                                   fputc@c 0012  
                           __pdataCOMRAM 005A                  fp__RB6_HIGH_Int_APP_ISR 0000  
                           __mediumconst 0000                                   tblptrh 0FF7  
                                 tblptrl 0FF6                                   tblptru 0FF8  
            keypad_intialize@_keypad_obj 001D                                   putch@c 0001  
                       __end_of_vfprintf 2EF8                                ??_sprintf 0030  
                  _ADC_INTERRUPT_HANDLER 004D                    ??_RB7_LOW_Int_APP_ISR 000B  
                             __accesstop 0080                  __end_of__initialization 2598  
               ??_convert_byte_to_string 0031                                ?_INT0_ISR 0001  
                              ?_INT1_ISR 0001                                ?_INT2_ISR 0001  
                          ___rparam_used 0001                     __end_of_INT0_APP_ISR 3236  
            dc_motor_move_left@_dc_motor 001A                        led_initialize@led 0019  
                  i2led_turn_off@pin_obj 000A                          _led_turn_toggle 2C90  
                      led_initialize@ret 001B                     __end_of_INT1_APP_ISR 3234  
                lcd_4_send_char_data@lcd 001D                  lcd_4_send_char_data@ret 001F  
                      i2led_turn_off@led 0008                   ??_gpio_pin_write_logic 0014  
                   __end_of_INT2_APP_ISR 3224                           __pcstackCOMRAM 0001  
                           __pidataBANK0 2A74                             __pidataBANK1 31E8  
                          __end_of_fputc 227A                 gpio_pin_toogle_logic@ret 0017  
                          __end_of_putch 322A                        RB5_ISR@RB5_source 000B  
              lcd_4_send_command@command 001E                     __end_of_led_turn_off 2990  
           convert_short_to_string@value 00FD                                  ??_fputc 0016  
                                ??_putch 0012                               __pbssBANK0 00F1  
                             __pbssBANK1 0100              __end_of_RB4_LOW_Int_APP_ISR 322E  
                             ??_INT0_ISR 0009                               ??_INT1_ISR 0009  
                             ??_INT2_ISR 0009             __end_of_RB4_HIGH_Int_APP_ISR 3232  
        keypad_intialize@columns_counter 0020                     relay_intialize@F3479 0054  
              ??i2_gpio_pin_toogle_logic 0002                                  ?___wmul 0012  
                      led_turn_off@F3489 0056                                  _ADC_ISR 3224  
                                ?_memset 0012                                  ?_strcmp 0012  
                                _RB4_ISR 282A                                  _RB5_ISR 27AC  
                                _RB6_ISR 272E                                  _RB7_ISR 26B0  
                   led_turn_toggle@F3494 0055                   relay_turn_toggle@F3494 0051  
                      ?_keypad_get_value 001A                            i2_led_turn_on 2BBE  
                      RB7_ISR@RB7_source 000B                         ??_led_initialize 001A  
                     ??_keypad_get_value 001C                               _btn_values 1001  
                __end_of_led_turn_toggle 2CF6                                  _KeyPad1 00E3  
                ??_gpio_pin_toogle_logic 0013                                  __Hparam 0000  
             __end_of_lcd_4_send_command 2E0C                  fp__RB7_HIGH_Int_APP_ISR 0000  
                                __Lparam 0000                        ?_keypad_intialize 001D  
            __end_of_RB5_LOW_Int_APP_ISR 322C             __end_of_dc_motor_move_toggle 3096  
                  dc_motor_move_left@ret 001B                       ??_keypad_intialize 001E  
                                ___awdiv 20FC                      _gpio_pin_read_logic 23DA  
                                ___awmod 232A                                ?_vfprintf 002A  
                           __psmallconst 1000               __end_of_gpio_pin_intialize 2A74  
                                __pcinit 2514                                  __ramtop 1000  
                                __ptext0 10C0                                  __ptext1 2CF6  
                                __ptext2 28A8                                  __ptext3 291C  
                                __ptext4 247E                                  __ptext5 227A  
                                __ptext6 2D54                                  __ptext7 1F2A  
                                __ptext8 23DA                                  __ptext9 3184  
                                _led_red 006D                        _INTERRUPT_MANGER_ 0008  
                       ___awmod@dividend 0012                                  _motor_1 0068  
                         ?i2_led_turn_on 0008                       ?_INTERRUPT_MANGER_ 0001  
                   ?_gpio_pin_read_logic 0012                 ??i2_gpio_pin_write_logic 0003  
                                _sprintf 2EF8                           __pintcode_body 1734  
                   end_of_initialization 2598                                  fputc@fp 0014  
                                memset@c 0013                      ??_INTERRUPT_MANGER_ 000C  
                                memset@n 0015                                  memset@p 0017  
                                int_func 1734                        ??_lcd_4_intialize 0021  
                  gpio_pin_intialize@ret 001C                      led_turn_off@pin_obj 001D  
                          _dc_motor_stop 2F7A             keypad_get_value@cloumn_logic 001E  
                      __end_of_vfpfcnvrt 1BEE                    __end_of_lcd_send_4bit 2A02  
                                postdec1 0FE5                                  postdec2 0FDD  
                                postinc0 0FEE                                  postinc1 0FE6  
                                postinc2 0FDE                         vfpfcnvrt@convarg 0025  
          lcd_4_send_string_position@lcd 0026            lcd_4_send_string_position@ret 002B  
          lcd_4_send_string_position@row 0027            lcd_4_send_string_position@str 0029  
                             ??_vfprintf 002F                                  strcmp@l 0012  
                                strcmp@r 0013                               _result_txt 00F7  
                   lcd_send_4bit@command 001B              __end_of_RB6_LOW_Int_APP_ISR 31FC  
                              _PORTBbits 0F81                   _convert_byte_to_string 2E0C  
              __end_of_INTERRUPT_MANGER_ 1A0A             __end_of_RB5_HIGH_Int_APP_ISR 3230  
          gpio_pin_intialize@_pin_config 001A                     _RB4_HIGH_Int_APP_ISR 3230  
                           _INT0_APP_ISR 3234     __end_of_gpio_pin_direction_intialize 1D14  
           _gpio_pin_direction_intialize 1BEE                             _INT1_APP_ISR 3232  
                  ??_gpio_pin_read_logic 0014                             _INT2_APP_ISR 321A  
                       ?_led_turn_toggle 0006                    lcd_4_intialize@l_pins 0022  
               lcd_4_send_char_data@data 001E                           ?_dc_motor_stop 001A  
                           _led_turn_off 291C         gpio_pin_toogle_logic@_pin_config 0012  
     i2gpio_pin_toogle_logic@_pin_config 0001                      _lcd_4bit_set_cursor 227A  
                     relay_turn_on@F3484 0053                    keypad_get_value@value 001B  
                            vfpfcnvrt@ap 001F                              vfpfcnvrt@cp 0024  
                            vfpfcnvrt@fp 001C                           __end_of___wmul 31D4  
                          __pidataCOMRAM 31D4                           __end_of_memset 30FA  
                  ?_RB4_HIGH_Int_APP_ISR 0001                          ??i2_led_turn_on 0009  
           __end_of_lcd_4_send_char_data 2DB0                           __end_of_strcmp 2D54  
                    start_initialization 2514                            ??_led_turn_on 001B  
                   ?_lcd_4bit_set_cursor 0020                   led_turn_toggle@pin_obj 0008  
            __end_of_RB7_LOW_Int_APP_ISR 3206                              __end_of_abs 30CA  
          ?_gpio_pin_direction_intialize 0012                     _dc_motor_move_toggle 3062  
                           _lat_register 008A               __end_of_dc_motor_intialize 3062  
                           _counter_pass 005C                   dc_motor_stop@_dc_motor 001A  
                _convert_short_to_string 2E60                          led_turn_off@led 001A  
                        led_turn_off@ret 001C                      keypad_intialize@ret 001E  
             __end_of_dc_motor_move_left 302E                              vfprintf@fmt 002C  
                 fp__RB4_LOW_Int_APP_ISR 0000                                 ??___wmul 0016  
              convert_byte_to_string@ret 00FE                              __pdataBANK0 0080  
                            __pdataBANK1 0134                convert_byte_to_string@str 0030  
                               ?_ADC_ISR 0001                                 ??_memset 0017  
           __end_of_ecu_layer_initialize 31AE                               memset@dest 0012  
                       dc_motor_stop@ret 001B                                 ??_strcmp 0014  
                            _rb4_int_obj 00C8              convert_byte_to_string@value 00FD  
                               ?_RB4_ISR 0001                                 ?_RB5_ISR 0001  
                               ?_RB6_ISR 0001                                 ?_RB7_ISR 0001  
                            _rb5_int_obj 00C2                              __pbssCOMRAM 0031  
                  ??_lcd_4bit_set_cursor 0023                              _rb6_int_obj 00BC  
                          __pcstackBANK0 00FD                            __pcstackBANK1 0120  
                       i2led_turn_on@led 0008                              _rb7_int_obj 00B6  
                  ?_dc_motor_move_toggle 0018                      __end_of_led_turn_on 291C  
        gpio_pin_direction_intialize@ret 0018                          ??_dc_motor_stop 001B  
           __end_of_RB6_HIGH_Int_APP_ISR 3210                     _RB5_HIGH_Int_APP_ISR 322E  
          __end_of_gpio_pin_toogle_logic 262E                                __pintcode 0008  
                 i2_gpio_pin_write_logic 1E24          gpio_pin_write_logic@_pin_config 0012  
      i2gpio_pin_write_logic@_pin_config 0001                                 ?___awdiv 0012  
                               ?___awmod 0012               convert_short_to_string@ret 0030  
             convert_short_to_string@str 00FF                gpio_pin_write_logic@logic 0013  
                 ??_RB4_HIGH_Int_APP_ISR 0001                   _Interrupt_handler_INT0 004B  
                 _Interrupt_handler_INT1 0049                   _Interrupt_handler_INT2 0047  
                              _led_green 006C           ??_lcd_4bit_send_enable_signale 001B  
                 fp__RB5_LOW_Int_APP_ISR 0000                       _lcd_4_send_command 2DB0  
     __end_of_lcd_4_send_string_position 2514               _lcd_4_send_string_position 247E  
                            __smallconst 1000                          _lcd_4_intialize 2016  
                    ?_lcd_4_send_command 001D                                 ?_sprintf 0120  
                     _gpio_pin_intialize 2A02                ??_convert_short_to_string 0030  
               ?i2_gpio_pin_toogle_logic 0001           ??_gpio_pin_direction_intialize 0013  
                               _INT0_ISR 3156                                 _INT1_ISR 3128  
                               _INT2_ISR 30FA                           ___wmul@product 0016  
                               _RB4_Flag 0061                                 _RB5_Flag 0060  
                               _RB6_Flag 005F                                 _RB7_Flag 005E  
                  ?_RB5_HIGH_Int_APP_ISR 0001                      ?_gpio_pin_intialize 001A  
                               _PIE1bits 0F9D                  dc_motor_move_toggle@ret 0019  
                               i2u320_40 1E34                                 i2u320_41 1E30  
                               i2u321_40 1E54                                 i2u401_40 27FE  
                               i2u400_48 27D8                                 i2u321_41 1E50  
                               i2u401_41 27FA                                 i2u400_49 27EA  
                               i2u402_40 2810                                 i2u410_40 26C4  
                               i2u402_41 280C                                 i2u410_41 26C0  
                               i2u322_44 1E76                                 i2u322_45 1E72  
                               i2u411_40 26D6                                 i2u411_41 26D2  
                               i2u323_44 1ECC                                 i2u331_45 2CD6  
                               i2u323_45 1EC8                                 i2u331_47 2CD8  
                               i2u324_40 263E                                 i2u332_40 2CE8  
                               i2u403_48 2816                                 i2u404_40 2742  
                               i2u500_40 1954                                 i2u324_41 263A  
                               i2u332_41 2CE4                                 i2u403_49 2828  
                               i2u404_41 273E                                 i2u500_41 1950  
                               i2u325_40 265E                                 i2u405_40 2754  
                               i2u413_40 2702                                 i2u412_48 26DC  
                               i2u501_40 1962                                 i2u325_41 265A  
                               i2u405_41 2750                                 i2u413_41 26FE  
                               i2u412_49 26EE                                 i2u501_41 195E  
                   _lcd_4_send_char_data 2D54                                 i2u414_40 2714  
                               i2u502_40 1970                                 i2u414_41 2710  
                               i2u502_41 196C                                 i2u326_44 2680  
                               i2u326_45 267C                                 i2u334_45 2C04  
                               i2u334_47 2C06                                 i2u335_40 2C16  
                               i2u407_40 2780                                 i2u406_48 275A  
                               i2u503_40 1980                                 i2u335_41 2C12  
                               i2u407_41 277C                                 i2u406_49 276C  
                               i2u503_41 197C                                 i2u408_40 2792  
                               i2u415_48 271A                                 i2u504_40 1998  
                               i2u408_41 278E                                 i2u415_49 272C  
                               i2u504_41 1994                                 i2u336_45 2B9A  
                               i2u336_47 2B9C                                 i2u337_40 2BAC  
                               i2u505_40 19A6                                 i2u337_41 2BA8  
                               i2u505_41 19A2                                 _PIR1bits 0F9E  
                               i2u409_48 2798                                 i2u506_40 19B4  
                               i2u409_49 27AA                                 i2u506_41 19B0  
                               i2u507_40 19C4                                 i2u507_41 19C0  
                               i2u508_40 19DC                                 i2u508_41 19D8  
                               i2u509_40 19EA                                 i2u509_41 19E6  
                               i2u390_40 310E                                 i2u470_40 175C  
                               i2u390_41 310A                                 i2u470_41 1758  
                     led_turn_on@pin_obj 001D                                 i2u471_40 176A  
                               i2u471_41 1766                                 i2u391_48 3114  
                               i2u392_40 283E                                 i2u480_40 1800  
                               i2u472_40 177C                                 i2u391_49 3126  
                               i2u392_41 283A                                 i2u480_41 17FC  
                               i2u472_41 1778                                 i2u393_40 2850  
                               i2u481_40 180E                                 i2u473_40 178A  
                               i2u393_41 284C                                 i2u481_41 180A  
                               i2u473_41 1786                                 i2u386_40 316A  
                               i2u490_40 18A4                                 i2u482_40 181C  
                               i2u474_40 179C                                 i2u386_41 3166  
                               i2u490_41 18A0                                 i2u482_41 1818  
                               i2u474_41 1798                                 i2u395_40 287C  
                               i2u394_48 2856                                 i2u491_40 18B4  
                               i2u483_40 182C                                 i2u475_40 17AA  
                               i2u395_41 2878                                 i2u394_49 2868  
                               i2u491_41 18B0                                 i2u483_41 1828  
                               i2u475_41 17A6                                 i2u387_48 3170  
                               i2u388_40 313C                                 i2u396_40 288E  
                               i2u492_40 18CC                                 i2u484_40 1844  
                               i2u476_40 17BC                                 i2u387_49 3182  
                               i2u388_41 3138                                 i2u396_41 288A  
                               i2u492_41 18C8                                 i2u484_41 1840  
                               i2u476_41 17B8                                 i2u493_40 18DA  
                               i2u485_40 1852                                 i2u477_40 17CA  
                               i2u493_41 18D6                                 i2u485_41 184E  
                               i2u477_41 17C6                                 i2u389_48 3142  
                               i2u397_48 2894                                 i2u398_40 27C0  
                               i2u494_40 18E8                                 i2u486_40 1860  
                               i2u478_40 17D8                                 i2u389_49 3154  
                               i2u397_49 28A6                                 i2u398_41 27BC  
                               i2u494_41 18E4                                 i2u486_41 185C  
                               i2u478_41 17D4                                 i2u399_40 27D2  
                               i2u495_40 18F8                                 i2u487_40 1870  
                               i2u479_40 17E8                                 i2u399_41 27CE  
                               i2u495_41 18F4                                 i2u487_41 186C  
                               i2u479_41 17E4                                 i2u496_40 1910  
                               i2u488_40 1888                                 i2u496_41 190C  
                               i2u488_41 1884                                 i2u497_40 191E  
                               i2u489_40 1896                                 i2u497_41 191A  
                               i2u489_41 1892                                 i2u498_40 192C  
                               i2u498_41 1928                                 i2u499_40 193C  
                               i2u499_41 1938                     ??_lcd_4_send_command 001F  
                      RB4_ISR@RB4_source 000B                  ?_convert_byte_to_string 0030  
                         i2_led_turn_off 2B54                                _vfpfcnvrt 1A0A  
                             _ADCON0bits 0FC2                               _ADCON1bits 0FC1  
                             _ADCON2bits 0FC0                        ___wmul@multiplier 0012  
                   ??_gpio_pin_intialize 001B                   ??_dc_motor_move_toggle 0019  
                            _led_turn_on 28A8          keypad_get_value@columns_counter 0021  
                 fp__RB6_LOW_Int_APP_ISR 0000                               vfpfcnvrt@c 0029  
                gpio_pin_write_logic@ret 0019                              _INTCON2bits 0FF1  
                            _INTCON3bits 0FF0                                copy_data0 2528  
                              copy_data1 2548                                copy_data2 2568  
                    _dc_motor_move_right 2FB6                   gpio_pin_read_logic@ret 0018  
                   _ecu_layer_initialize 3184                               _EECON1bits 0FA6  
                         led_turn_on@led 001A                    ?_lcd_4_send_char_data 001D  
                         led_turn_on@ret 001C                                 __Hrparam 0000  
                 __end_ofi2_led_turn_off 2BBE                               vfprintf@ap 002D  
                               __Lrparam 0000                               vfprintf@fp 002A  
         __end_of_convert_byte_to_string 2E60          __end_of_convert_short_to_string 2EB0  
                 lcd_4bit_set_cursor@lcd 0020                   lcd_4bit_set_cursor@ret 0025  
                             ?_vfpfcnvrt 001C                   lcd_4bit_set_cursor@row 0021  
                     lcd_4_intialize@lcd 0020                       lcd_4_intialize@ret 0023  
                __end_of_lcd_4_intialize 20FC                     ?_dc_motor_move_right 001A  
                     __end_of_btn_values 1011              __end_of_gpio_pin_read_logic 247E  
           __end_of_RB7_HIGH_Int_APP_ISR 321A                                 _YourPass 00F1  
            keypad_get_value@_keypad_obj 001A                               sprintf@fmt 0121  
                   _RB6_HIGH_Int_APP_ISR 3206                        RB6_ISR@RB6_source 000B  
        __end_ofi2_gpio_pin_toogle_logic 26B0                                 __ptext10 2AE6  
                               __ptext11 2016                                 __ptext20 3062  
                               __ptext12 2DB0                                 __ptext21 25A2  
                               __ptext13 2990                                 __ptext30 21C0  
                               __ptext22 2FB6                                 __ptext14 2F3C  
                               __ptext31 3228                                 __ptext23 2FF2  
                               __ptext15 2C28                                 __ptext40 27AC  
                               __ptext32 3096                                 __ptext24 1D14  
                               __ptext16 2A02                                 __ptext41 282A  
                               __ptext33 232A                                 __ptext25 2E60  
                               __ptext17 302E                                 __ptext50 2B54  
                               __ptext42 31F2                                 __ptext34 20FC  
                               __ptext26 2E0C                                 __ptext18 1BEE  
                               __ptext51 2BBE                                 __ptext43 322A  
                               __ptext35 30CA                                 __ptext27 2EF8  
                               __ptext19 2F7A                                 __ptext60 262E  
                               __ptext52 1E24                                 __ptext44 322C  
                               __ptext36 31AE                                 __ptext28 2EB0  
                               __ptext61 3224                                 __ptext53 30FA  
                               __ptext45 31FC                                 __ptext29 1A0A  
                               __ptext62 0000                                 __ptext54 3128  
                               __ptext46 3206                                 __ptext38 26B0  
                               __ptext55 3156                                 __ptext47 322E  
                               __ptext39 272E                                 __ptext56 3232  
                               __ptext48 3230                                 __ptext57 3234  
                               __ptext49 3210                                 __ptext58 321A  
                               __ptext59 2C90          lcd_4bit_send_enable_signale@lcd 001A  
                               _int0_obj 00DA                                 _int1_obj 00D4  
                               _int2_obj 00CE          lcd_4bit_send_enable_signale@ret 001B  
                 dc_motor_move_right@ret 001B                       led_turn_toggle@led 0006  
                 ??_RB5_HIGH_Int_APP_ISR 0001                    ?_ecu_layer_initialize 0001  
                               _buuton_1 00E0                   fp__RB7_LOW_Int_APP_ISR 0000  
                       _keypad_get_value 1F2A                          ?i2_led_turn_off 0008  
                               isa$xinst 0000                                 int$flags 006E  
                     _dc_motor_intialize 302E             keypad_intialize@rows_counter 001F  
                               _vfprintf 2EB0                    ??_dc_motor_move_right 001B  
                    ?_dc_motor_intialize 0019                    ?_RB6_HIGH_Int_APP_ISR 0001  
                     _dc_motor_move_left 2FF2                               _INTCONbits 0FF2  
                       _keypad_intialize 2C28                  fp__RB4_HIGH_Int_APP_ISR 0000  
                  __end_ofi2_led_turn_on 2C28                      _RB4_LOW_Int_APP_ISR 322C  
           __end_of_gpio_pin_write_logic 1E24             ??_lcd_4_send_string_position 002B  
                    ?_dc_motor_move_left 001A                                 intlevel2 0000  
                              sprintf@ap 0124                     ??_dc_motor_intialize 001A  
                 ??_lcd_4_send_char_data 001F                  ?i2_gpio_pin_write_logic 0001  
                   ?_RB4_LOW_Int_APP_ISR 0001                     ??_dc_motor_move_left 001B  
                          _lcd_send_4bit 2990                          fp__INT0_APP_ISR 0000  
           dc_motor_move_right@_dc_motor 001A                              ??_vfpfcnvrt 0021  
            __end_of_lcd_4bit_set_cursor 232A                          fp__INT1_APP_ISR 0000  
                       ?_lcd_4_intialize 0020                          fp__INT2_APP_ISR 0000  
                               sprintf@f 0126                                 sprintf@s 0120  
            ?_lcd_4_send_string_position 0026                   ??_ecu_layer_initialize 0024  
                          _port_register 0080                      _RB5_LOW_Int_APP_ISR 322A  
         __end_ofi2_gpio_pin_write_logic 1F2A                     _RB7_HIGH_Int_APP_ISR 3210  
                  __end_of_dc_motor_stop 2FB6              dc_motor_intialize@_dc_motor 0019  
                         _led_initialize 2AE6                    ??_RB4_LOW_Int_APP_ISR 0001  
